LINK : warning L4021: no stack segment

 Start  Stop   Length Name                   Class
 00000H 01129H 0112AH GDATA                  DATA
 01200H 0208CH 00E8DH TCB                    DATA
 0208EH 02277H 001EAH IRQ                    DATA
 02278H 0229BH 00024H POLL                   DATA
 0229CH 0229CH 00000H GBACK                  DATA
 02300H 0CA4FH 0A750H DDT                    CODE2
 0CB00H 1C9C5H 0FEC6H MOSSEG                 CODE1
 1C9D0H 1F92FH 02F60H INITSEG                INIT1
 1F930H 1F930H 00001H FCSEG                  INIT1

 Origin   Group
 0000:0   GRP
 0230:0   MO2
 0CB0:0   MOS
 1C9D:0   INIT

  Address         Publics by Name

 0CB0:75C2       $$$INT38
 0CB0:3052       $$$LIMAN
 0CB0:740A       $$$MOS28
 0CB0:CF3E       $$$NXTSK
 0CB0:947E       $$$RTASK
 0CB0:6FD8       $$$SAVER
 0CB0:163F       ABB1
 0CB0:1658       ABB3
 0CB0:165B       ABB4
 0CB0:160A       ABN1
 0CB0:162A       ABN3
 0CB0:1620       ABN4
 0CB0:163B       ABN5
 0CB0:1632       ABN7
 0CB0:163F       ABS2BSO
 0CB0:160A       ABS2NSO
 0CB0:168A       ADS1
 0CB0:1661       ADVANCE_SECT
 0230:3583       ALLOCLUST
 0230:4E82       ALLOWHIO
 0CB0:B88C       ALTTBL
 0000:066C       B1
 0000:066E       B2
 0000:0670       B3
 0000:0A7A       BADLAYOUT
 0230:67CF       BANKIN
 0CB0:D013       BIAS_STACK
 0CB0:16B9       BIO13
 0CB0:16CA       BIO13A
 0230:664E       BIO9A
 0230:6670       BIO9B
 0CB0:16EF       BIORET
 0000:0B23       BIOSFUN
 0230:6612       BIOSINT9
 0040:0008  Abs  BIOSLPTS
 0CB0:1390       BIOSSEG
 0040:006C  Abs  BIOSTICK
 0230:A6CA       BITADDR
 0CB0:1BC9       BLD05
 0CB0:1BD7       BLD07
 0CB0:1BDA       BLD08
 0CB0:1956       BLKINTR
 0230:7F51       BLKREAD
 0CB0:1946       BLKSTRAT
 0230:81A5       BLKWRITE
 0CB0:1086       BOOTSEG
 0000:0915       BPBARR
 0000:0010  Abs  BPBERR
 0000:0876       BPBPNTR
 0000:065A       BPS
 0230:3E12       BUFFINP
 0CB0:10A5       BUGERROR
 0CB0:F839       BUGOPEN
 0CB0:F82E       BUGSHELL
 0CB0:1D8B       CALCABS
 0CB0:F377       CALCLIM
 0CB0:158F       CALC_PIECES
 0230:7592       CALLB50
 0230:391D       CALLCON
 0230:75DE       CALLER1
 0CB0:4C08       CALLER2
 0230:7601       CALLFUN1
 0230:69A4       CALLINT
 0CB0:70E4       CALLKEYS
 0CB0:6E9B       CAPS
 0230:3885       CAPSCMPS
 0230:46ED       CDEVINP
 0230:47A0       CDEVOUTP
 0CB0:733B       CDW1
 0230:A589       CFREE
 0000:0F52       CGATBL
 0CB0:191F       CH13A
 0000:0FE5       CHAIN9
 0CB0:157F       CHB1
 0230:4DD9       CHECKEXON
 0CB0:733C       CHECK_FIX
 0CB0:7340       CHF1
 0CB0:739B       CHF2
 0CB0:736A       CHF3
 0CB0:738E       CHF4
 0CB0:18B0       CHK13B
 0230:2987       CHKACC
 0230:94E7       CHKBDB
 1C9D:27A3       CHKDINT
 0CB0:3A95       CHKHEAP
 0230:6D2D       CHKHERC
 0CB0:71A0       CHKIRQ
 0230:3740       CHKLOCK
 0230:8E18       CHKLOGD
 0230:6D2C       CHKM2
 0230:6D41       CHKMH1
 0230:6D55       CHKMH2
 0230:6CFA       CHKMODE
 0CB0:71D5       CHKQ1A
 0CB0:D154       CHKSLICE
 0CB0:188B       CHK_13GATE
 0230:8649       CHK_BDBGATE
 0CB0:1550       CHK_BOUND
 0CB0:7205       CHQ1
 0CB0:72EA       CHQ10
 0CB0:7329       CHQ11
 0CB0:72EE       CHQ12
 0CB0:7275       CHQ13
 0CB0:7286       CHQ14
 0CB0:728A       CHQ15
 0CB0:71E8       CHQ16
 0CB0:720F       CHQ2
 0CB0:7310       CHQ3
 0CB0:72FE       CHQ4
 0CB0:729B       CHQ5
 0CB0:7220       CHQ6
 0CB0:7243       CHQ6A
 0CB0:72FD       CHQ7
 0CB0:72AF       CHQ8
 0CB0:72DA       CHQ9
 0230:A450       CKDEV0
 0230:760C       CLASSBITS
 0230:7604       CLASSLVL
 0230:A645       CLEARBIT
 0CB0:CF2A       CLEARIO
 0CB0:FEA1       CLEARSM
 0CB0:F65A       CLOBBER
 0230:A0A4       CLOSEALL
 0230:9FBC       CLOSEFILE
 0CB0:98C3       CLOSETASK
 0CB0:CB87       CLOSPLUP
 0CB0:CBE6       CLOSPOLL
 0CB0:CB99       CLOSPXIT
 0CB0:CB75       CLOSSPLS
 0230:3659       CLRCLUST
 0CB0:CC0F       CLSPLOOP
 0CB0:CC2E       CLSPNEXT
 0CB0:CC3C       CLSPRET
 0CB0:CC0A       CLSPSKP1
 0CB0:CC3B       CLSPSKP2
 0CB0:CC38       CLSPXIT
 0CB0:98DB       CLST10
 0CB0:9906       CLST15
 0CB0:9929       CLST20
 0CB0:9946       CLST30
 0CB0:996B       CLST40
 0CB0:9973       CLSTX
 0230:A50E       CMAP
 0CB0:7335       CMP_DWORD
 0CB0:F5D2       CNFSEG
 0CB0:9CAE       COM10INTR
 0CB0:9CB6       COM11INTR
 0CB0:9CBE       COM12INTR
 0CB0:9CC6       COM13INTR
 0CB0:9CCE       COM14INTR
 0CB0:9CD6       COM15INTR
 0CB0:9CDE       COM16INTR
 0CB0:9CE6       COM17INTR
 0CB0:9CEE       COM18INTR
 0CB0:9CF6       COM19INTR
 0CB0:9C5E       COM1INTR
 0CB0:9CFE       COM20INTR
 0CB0:9D06       COM21INTR
 0CB0:9D0E       COM22INTR
 0CB0:9D16       COM23INTR
 0CB0:9D1E       COM24INTR
 0CB0:9C67       COM2INTR
 0CB0:9C70       COM3INTR
 0CB0:9C79       COM4INTR
 0CB0:9C82       COM5INTR
 0CB0:9C8B       COM6INTR
 0CB0:9C94       COM7INTR
 0CB0:9C9D       COM8INTR
 0CB0:9CA6       COM9INTR
 0000:0032  Abs  COMSETL
 0CB0:CCE3       COMSTATUS
 0CB0:CCF0       COMSTXIT
 0230:614A       CONONLY
 0CB0:15BC       CPC1
 0CB0:F61A       CPRES
 0230:763D       CPYCMAP
 0230:2B38       CREATE
 0230:4D6D       CREATGUTS
 0230:4EDA       CRTINT3
 0CB0:A9B8       CSYNCH
 0CB0:B78C       CTRLTBL
 0CB0:F5E3       CURMODE
 0230:6005       CURSYNCH
 0230:6AD0       DAT9A
 0230:6AF4       DAT9B
 0230:6ADD       DATNOENH
 0000:0019  Abs  DBPB_SIZE
 0CB0:F59A       DD4013
 0230:65D2       DDTCALL
 0CB0:A9B2       DDTCALLF
 0230:69F5       DDTIN0
 0230:6A05       DDTIN1
 0000:0FE2       DDTMCTCB
 0230:3612       DEALLOC
 0CB0:7539       DECINMOS
 0CB0:B0AD       DECODESCAN
 0230:84FA       DECRYPT
 0230:2D6B       DELETE
 0CB0:1660       DEL_DESC
 0000:FFF0  Abs  DEMOOUT
 0230:4EB9       DENYHIO
 0CB0:C76F       DETERMINE_ROUTE
 0230:7761       DEVCHK
 0CB0:9D8F       DEVERR
 0230:33B5       DEVICENM
 0230:766A       DEVREAD
 0CB0:9D4A       DEVSINTR
 0CB0:9D2C       DEVSINTRX
 0CB0:9C38       DEVSTRAT
 0CB0:9D83       DEVSTUB
 0230:76BA       DEVWRITE
 0000:0B24       DIRCNT
 0000:0020  Abs  DIRTYBPB
 0CB0:1D4F       DISKERR
 0000:0B34       DISKPRM
 0000:0040  Abs  DISKSWAP
 0CB0:1CCF       DISK_IO
 0CB0:FE95       DISPMOS
 1C9D:2D25       DISPSMP
 0000:064E       DMA13AX
 0000:0650       DMA13BX
 0000:0652       DMA13CX
 0000:0654       DMA13DX
 0000:0656       DMA13ES
 0CB0:F5FD       DMBUFFR
 0CB0:F627       DMFLAGS
 0CB0:F5E5       DMLIST
 0CB0:F5E7       DMPATCH
 0CB0:CC6A       DO21H
 0CB0:9DB7       DOCOM
 0CB0:46C7       DOESC
 0CB0:9DAB       DONUL
 0CB0:739C       DOPOLL
 0CB0:73B6       DOPOLL1
 0CB0:73C9       DOPOLL2
 0CB0:73EE       DOPOLL2A
 0CB0:73F9       DOPOLL3
 0CB0:7402       DOPOLL4
 0CB0:D8E4       DOPOST
 0CB0:FE1C       DRVERR
 0000:0B9D       DRVN
 0000:0B22       DRVNUM
 0CB0:1D2C       DSKERRTBL
 0000:0004  Abs  DTCHGLN
 0000:0002  Abs  DTHICAP
 0CB0:F628       DTIMEOUT
 0000:0001  Abs  DTSMALL
 0CB0:9E69       DXSET
 0230:7652       EBLCMAP
 0CB0:A058       EGAOFF
 0CB0:A049       EGAON
 0230:2BC6       EMPTYDIR
 0230:849F       ENCRYPT
 0000:0FE4       ENDCHN9
 0CB0:1D20       ENDIO
 0000:0FDC       ENDKB
 0CB0:9ED7       ENDRES
 0000:0013  Abs  ENDTFN
 0CB0:9D76       ERR1
 0CB0:19B0       ERR2
 0CB0:1D64       ERR3
 0CB0:1D89       ERR4
 0000:0011  Abs  ERR_STAT
 0CB0:4AE3       ESKEYR
 0230:A0F6       EXCLUDE
 0CB0:6729       EXECOPEN
 1C9D:2524       EXIT13
 0230:8701       EXIT_BDBGATE
 0230:69B1       EXPOSREAL
 0000:0005  Abs  FALEN
 0230:5130       FARCO
 0230:A4A7       FAT12
 0230:A485       FAT16
 0000:0910       FATARR
 0CB0:1BB8       FBLDBPB
 1C9D:2F60       FCSTART
 0CB0:1DBB       FDEVCLOSE
 0CB0:1DAD       FDEVOPEN
 0CB0:1D4B       FDSKERR
 0CB0:234F       FENDRES
 0CB0:19A4       FERR1
 0000:0BBA       FFUNTBL
 0CB0:1E0C       FGEN10
 0CB0:1E0F       FGEN20
 0CB0:1E12       FGEN30
 0CB0:1E18       FGEN40
 0CB0:1E1E       FGEN50
 0CB0:1E24       FGEN60
 0CB0:1E2A       FGEN70
 0CB0:1E2D       FGEN80
 0CB0:1DD1       FGENIOCTL
 0CB0:22CE       FGETLOG
 0CB0:225D       FGETMEDID
 0CB0:209F       FGFV10
 0CB0:20AD       FGFV11
 0CB0:20DE       FGFV350
 0CB0:20B7       FGFV525
 0CB0:20F5       FGFVDASD
 0CB0:20FE       FGFVMEDIA
 0CB0:211E       FGFVPARM
 0CB0:2086       FGFVTRACK
 0CB0:2162       FGFVXIT
 0CB0:1F14       FGGET10
 0CB0:1F19       FGGET20
 0CB0:1F1C       FGGET22
 0CB0:1F46       FGGET25
 0CB0:1F4C       FGGET27
 0CB0:1F52       FGGET30
 0CB0:1F62       FGGET40
 0CB0:1F6C       FGGET41
 0CB0:1F7B       FGGET50
 0CB0:1F91       FGGET55
 0CB0:1EF6       FGGETPARMS
 0000:0B30       FGHEAD
 0CB0:2068       FGRDTRACK
 0000:0240       FGSCBOFF
 0CB0:1E52       FGSET05
 0CB0:1E74       FGSET10
 0CB0:1E86       FGSET20
 0CB0:1E87       FGSET30
 0CB0:1E8A       FGSET40
 0CB0:1E93       FGSET50
 0CB0:1E30       FGSETPARMS
 0000:1200       FGTCBOFF
 0000:0B31       FGTRACK
 0CB0:21A2       FGVE10
 0CB0:21AD       FGVE20
 0CB0:218A       FGVERTRACK
 0CB0:1FCF       FGWR10
 0CB0:1FDC       FGWR20
 0CB0:1FED       FGWR30
 0CB0:205D       FGWRER1
 0CB0:2062       FGWRER2
 0CB0:2063       FGWRER3
 0CB0:200A       FGWRER35
 0CB0:1FA3       FGWRTTRACK
 9999:02D1  Abs  FILLER
 9999:0767  Abs  FILLERX
 9999:08A1  Abs  FILLERZ
 0230:3454       FINDBDB
 0230:A71D       FINDBDBC
 1C9D:2BEA       FINDDM
 0230:344B       FINDDRV
 0230:A202       FINDGFB
 0230:2D07       FINDLBL
 0230:31DB       FINDNM
 0230:A12A       FINDPHDL
 0230:36BC       FINDRLB
 0230:289A       FINDTFB
 0CB0:238C       FINI10
 0CB0:234F       FINITBLK
 0CB0:1CA2       FINPUT
 0CB0:4555       FINSTR
 0CB0:2304       FIOQUERY
 0CB0:2348       FIQX
 0CB0:234E       FIQZ
 0000:0080  Abs  FIRSTBPB
 0CB0:95A0       FIXIRQWFG
 0230:8F2C       FLUSH
 0230:90E3       FLUSH24
 0230:8F58       FLUSHBDB
 0230:92EB       FLUSHDATA
 0230:928B       FLUSHDIR
 0000:0019  Abs  FMAX_FUNC
 0CB0:1A18       FMEDCK
 0000:0F4A       FORCEVSA
 0000:0ACE       FORMATTABLE
 0CB0:1DA5       FOUTPUT
 0230:9D77       FREECACHE
 0CB0:1DC6       FREMOVE
 0CB0:199A       FREXIT
 0CB0:22E7       FSETLOG
 0CB0:21BA       FSETMEDID
 0000:0B64       FTYPES
 0CB0:5133       FUN00A
 0CB0:9D30       FUNTBL
 0000:0042  Abs  FVTRACK
 0229:000C       GEND
 0230:8429       GETCLUST
 0CB0:466E       GETCRSX
 0CB0:6EBE       GETDATE
 0230:2DE7       GETFAT
 0CB0:ACC7       GETKEYS
 0CB0:1B00       GETL10
 0CB0:1B0B       GETL20
 0CB0:1B18       GETL30
 0CB0:1B1E       GETL40
 0CB0:1B20       GETL50
 0CB0:1AF1       GETLABEL
 0000:0066  Abs  GETMEDID
 1C9D:14CE       GETMPSW
 0000:0060  Abs  GETPARMS
 0230:A18B       GETPHDL
 0230:73B1       GETS0
 0CB0:1B3B       GETS10
 0CB0:1B53       GETS20
 0CB0:1B54       GETS40
 0230:73BD       GETSC0
 0230:73C8       GETSC1
 0230:73E8       GETSC2
 0230:7378       GETSCR
 0CB0:1B26       GETSEC
 0230:7390       GETSG0
 0230:739B       GETSG1
 0230:7435       GETSH0
 0230:7442       GETSH1
 0230:7403       GETSHC1
 0230:73E9       GETSHERC
 0230:742B       GETSHGC
 0230:A1BF       GETTHDL
 0CB0:6F8B       GETTIME
 0CB0:6C85       GET_TRUE_CLUSTERS
 0000:0B2C       GIOBUF
 0CB0:7065       GOTYOU
 0CB0:CF60       GRAB_BACK
 0CB0:108A       GRPSEG1
 0230:0002       GRPSEG2
 0CB0:F65A       GSEGLEN
 0CB0:CC43       GSPSP
 0CB0:22B7       GTMX
 0CB0:22C6       GTMZ
 0230:5135       GVRAM
 0CB0:202E       G_DISKIO
 0CB0:1FE2       G_FMTENTRY
 0CB0:2053       G_IOEX
 0CB0:204D       G_IOOK
 0CB0:204A       G_IO_ERR
 0CB0:1FBE       G_RVENTRY
 0000:0B1E       HDR
 0000:0F83       HERCTBL
 0CB0:7590       HEX2ASC
 0230:12A2       HL_CREATE
 0230:13F1       HL_OPEN
 0CB0:FD86       HPERR
 0000:21A4       I09OLD
 0CB0:C2B6       I10FUN10
 0000:2180       I10OLD
 0CB0:1933       I13A
 0CB0:1449       I13B1A
 0CB0:1443       I13B1B
 0CB0:1450       I13B1X
 0CB0:1495       I13B2A
 0CB0:14F8       I13B2B
 0CB0:14D1       I13B2C
 0CB0:1502       I13B2D
 0CB0:1509       I13B2W
 0CB0:150C       I13B2X
 0CB0:1518       I13B3A
 0CB0:13CB       I13NOPASS
 0CB0:13C6       I13PASS
 0CB0:1928       I13POLL
 0CB0:185C       I13RG100
 0CB0:140C       I13SKIP8
 0CB0:153B       I13X
 0000:20A8       I15OLD
 0CB0:428F       I15POLL
 0CB0:4182       I15SUSPEND
 0000:218C       I16OLD
 0CB0:CB9A       I17CLOSE
 0CB0:CBAA       I17CLSXIT
 0CB0:CC83       I17COM
 0CB0:CCA7       I17COMS
 0CB0:CCA6       I17COM_EXIT
 0CB0:CC8B       I17COM_LP
 0CB0:CCA3       I17COM_OK
 0CB0:C6A3       I17FUNCS
 0CB0:C740       I17INIT
 0CB0:C818       I17LBUSY
 0CB0:C808       I17LCHAR
 0CB0:C827       I17LERR
 0CB0:C802       I17LLUP
 0CB0:C828       I17LPRT
 0CB0:C7F2       I17LPT
 0CB0:C7FC       I17LPTS
 0CB0:C80C       I17LTEST
 0000:219E       I17NEW
 0000:21A0       I17NEW2
 0000:2198       I17OLD
 0CB0:C739       I17PRINT
 0CB0:C6A0       I17PRTBIT
 0CB0:C74E       I17PRTSTR
 0CB0:CDF1       I17RC1
 0CB0:CDFB       I17RC2
 0CB0:CDCC       I17RC3
 0CB0:CDA0       I17RC4
 0CB0:CDD9       I17RC5
 0CB0:CDDC       I17RC6
 0CB0:CE04       I17RC7
 0CB0:CDFE       I17RC8
 0CB0:CE08       I17REMC
 0CB0:CE6C       I17REMS
 0CB0:CD98       I17REMST
 0CB0:CE18       I17RM0
 0CB0:CE4F       I17RM1
 0CB0:CE2A       I17RM2
 0CB0:CE67       I17RM3
 0CB0:CE70       I17RS1
 0000:219C       I17SAV
 0CB0:C9AC       I17SPL
 0CB0:C9D2       I17SPLS
 0CB0:C747       I17STAT
 0CB0:C76B       I17SXIT
 0CB0:C90D       I17WAIT
 0CB0:C952       I17W_CONT
 0CB0:C915       I17W_LOOP
 0CB0:C959       I17W_OK
 0000:0002  Abs  I17_COM
 0CB0:CCAF       I17_CS1
 0CB0:CCB4       I17_CS2
 0CB0:CCCF       I17_CSOK
 0CB0:CCD5       I17_CS_EXIT
 0CB0:C732       I17_EXIT
 0CB0:C730       I17_INVALID
 0000:0000  Abs  I17_LPT
 0000:FFFF  Abs  I17_NUL
 0000:0003  Abs  I17_REM
 0000:0001  Abs  I17_SPL
 0000:2144       I28OLD
 0230:6681       I9HELPER
 0000:0007  Abs  IDLEN
 0CB0:FEBE       IFAR21
 1C9D:0008       IMOSADDR
 0000:0FE1       IN09
 0CB0:9DD6       IN1A
 0CB0:9DEF       IN1B
 0CB0:9DFA       IN1C
 0CB0:43A9       IN28LOOP
 1C9D:18FC       INCALL
 0CB0:7551       INCINMOS
 0CB0:C98A       INFRETRY
 0CB0:C997       INFRETRYCONT
 0CB0:F066       INIDVARS
 1C9D:1733       INITCACHE
 0CB0:108C       INITCALL
 0CB0:CCD6       INITCOM
 1C9D:2F60       INITEND
 1C9D:0006       INITGRP
 0CB0:C85F       INITHLD
 0CB0:9FB7       INITIOPTBL
 0CB0:C841       INITLPT
 0CB0:F1E5       INITMCB
 1C9D:0004       INITMO2
 1C9D:0002       INITMOS
 1C9D:15E3       INITP2
 0CB0:FD73       INITP7
 1C9D:2833       INITP8
 1C9D:1A26       INITPA
 1C9D:1B6E       INITPB
 1C9D:1DA9       INITPC
 0000:102A       INITPSP
 0CB0:CE80       INITREM
 0CB0:CC3D       INITSPL
 1C9D:0000       INITSTART
 0CB0:F20A       INITSTATION
 0CB0:C6BD       INITVECT
 0230:6A5C       INKBDATA
 0CB0:9D9B       INPUT
 0CB0:13B5       INT13MSK
 0000:0078  Abs  INT1E
 0000:0FE6       INTSL
 1C9D:2C5C       INTVRST
 0230:9511       INVBDB
 0000:0F48       INVIDRAM
 0000:00FF  Abs  INV_STAT
 0230:2739       IO0D
 0CB0:1CCC       IOCONT
 0230:377A       IOLOCK
 0CB0:1D0A       IOOK
 0CB0:1CEE       IOPART
 0000:000A  Abs  IQL1_MAX
 0000:000C  Abs  IQL2_MAX
 0000:0000  Abs  IQL3_MAX
 0CB0:7130       IQLIST1
 0CB0:7160       IQLIST2
 0CB0:7198       IQLIST3
 0CB0:C9A9       IRETRYOUT
 0CB0:DF34       IRQBANK
 0000:2278       IRQEND
 0000:208E       IRQSTART
 0000:1012       IRQWFLAG
 0CB0:245F       ISD101
 0CB0:2455       ISD102
 0CB0:2441       ISD103
 0CB0:2437       ISD104
 0CB0:24B8       ISD40
 0CB0:249C       ISDBPB
 0CB0:23F3       ISDCMOS
 0CB0:2404       ISDFTYP
 0CB0:2423       ISDLOOP
 0CB0:2477       ISDMERG
 0CB0:2490       ISDMHDS
 0CB0:23BE       ISDRIVE
 0CB0:2414       ISDRIVES
 0CB0:2467       ISDSET
 0CB0:23E9       ISDT3100
 0CB0:24C6       ISDXIT
 0CB0:A03A       ISEGA
 0CB0:E452       JMP2ND74
 0CB0:E44B       JMPOLD74
 0000:0FBC       KBBF
 0230:6B28       KBCTL1
 0230:6B30       KBCTL2
 0230:6A79       KBDAT0
 0230:6A87       KBDAT1
 0000:0FDC       KBGET
 0000:0FE0       KBNOTMT
 0CB0:AC67       KBPOLL00
 0CB0:AC97       KBPOLL01
 0000:0FDE       KBPUT
 0CB0:7022       KEEPTPFRM
 0CB0:4417       KEYTRANS
 0000:0FE7       LAGTCB
 0CB0:DD88       LAUNCH_POINT
 0000:0B6A       LBLBUF
 0000:000B  Abs  LBLSIZ
 0CB0:F903       LDMMDEV
 0CB0:DE87       LIDT0A
 0CB0:DEA2       LIDT0B
 0CB0:DEBD       LIDT0C
 0CB0:DED8       LIDT0D
 0CB0:DEF3       LIDT0E
 0CB0:DF0E       LIDT0F
 0CB0:D1A8       LIDTINT08
 0230:6687       LIDTINT09
 0CB0:E38F       LIDTINT74
 0CB0:E3BE       LIDTMICE
 0CB0:E3D9       LIDTORG74
 0CB0:E3D8       LIDTSKMICE
 0CB0:E38E       LIDTSTUB74
 0CB0:D1A4       LIDTSTUB8
 0CB0:CF02       LIDTSTUB9
 0CB0:DF21       LIDTST_AF
 0CB0:CF2F       LL1
 0000:0008  Abs  LOADBPB
 0CB0:19C4       LOG10
 0CB0:19D7       LOG20
 0CB0:1A00       LOG30
 0CB0:19BC       LOGTRANS
 0CB0:9EB5       LOOPEND
 0CB0:9C43       LP1INTR
 0CB0:9C4C       LP2INTR
 0CB0:9C55       LP3INTR
 0CB0:C869       LPTBUSY
 0000:0FA0  Abs  LPTSETL
 0CB0:C875       LPTSTATUS
 0CB0:C8C3       LPT_HOLD_1
 0CB0:C8EC       LPT_HOLD_2
 0CB0:40D9       M15P1
 0CB0:428A       M15P11
 0CB0:41B2       M15P11A
 0CB0:41CA       M15P12
 0CB0:41B5       M15P12A
 0CB0:419E       M15P12B
 0CB0:421B       M15P13A
 0CB0:4258       M15P13B
 0CB0:42B8       M15P18
 0CB0:42A2       M15P18A
 0CB0:411C       M15P1B
 0CB0:4112       M15P2
 0CB0:4172       M15P3
 0CB0:4101       M15P4
 0CB0:417F       M15P5
 0CB0:410C       M15P6
 0CB0:4125       M15P7
 0CB0:412F       M15P7A
 0CB0:4142       M15P9
 0CB0:4C28       M1RETF
 0230:75FE       M2RETF
 0CB0:95C0       M40A
 0CB0:95FE       M40B
 0CB0:9606       M40C
 0CB0:95F4       M40D
 0CB0:95D2       M40E
 0CB0:95DC       M40F
 0CB0:961A       M40G
 0CB0:E40E       M74DONE
 0CB0:1E9A       MAKEFTBL
 0230:A2D9       MAKEGFB
 0230:2C91       MAKELBL
 0230:28CF       MAKETFB
 0CB0:8F8B       MAPVMA
 0CB0:8F75       MAPVMF
 0CB0:903F       MAPVSA
 0CB0:8F80       MAPVSF
 0230:A4F1       MARKCLEAN
 0230:A4C9       MARKDIRTY
 0CB0:559F       MAXDAYS
 0000:0B26       MAXDRV
 0000:0658       MAXHEAD
 0CB0:24C8       MAXPARM
 0CB0:24D0       MAXPARMX
 0000:0659       MAXSECT
 0000:0014  Abs  MAXTRKTBL
 0000:0FA0       MCBIO
 0230:7513       MCPOS
 0230:7526       MCPOS1
 0230:754D       MCSA1
 0230:755A       MCSA2
 0230:755E       MCSA3
 0230:756A       MCSB
 0230:756E       MCSC
 0230:7537       MCSCRIT
 0230:7578       MCSD
 0230:7589       MCSD0
 0230:758F       MCSD1
 0230:74DA       MCSDN1
 0230:74E2       MCSDN2
 0230:74BF       MCSDNARG
 0CB0:E4B2       MCSKIP
 0230:693C       MCSKMAP
 0000:0F9F       MCSNOW
 0230:7488       MCSUP1
 0230:7490       MCSUP2
 0230:7473       MCSUPARG
 0230:6877       MCTERM
 0230:687F       MCTRM020
 0230:68D0       MCTRM030
 0230:68D4       MCTRM040
 0230:68DF       MCTRM050
 0230:68F1       MCTRM060
 0230:68F6       MCTRM070
 0230:68FE       MCTRM080
 0230:6807       MCTRM090
 0230:684C       MCTRM100
 0230:6850       MCTRM110
 0230:6859       MCTRM120
 0230:6867       MCTRM130
 0230:6870       MCTRM140
 0230:6871       MCTRM150
 0230:6942       MCTRM200
 0230:694A       MCTRM210
 0230:6957       MCTRM220
 0230:696A       MCTRM230
 0CB0:1A59       MED05
 0CB0:1A70       MED06
 0CB0:1A73       MED10
 0CB0:1A7C       MED20
 0CB0:1A8B       MED30
 0CB0:1A97       MED32
 0CB0:1AA7       MED35
 0CB0:1AA9       MED40
 0000:0672       MEDIA13
 0230:77A9       MEDIACHK
 0CB0:FE6A       MINTERR
 0000:0019  Abs  MKBALTNM
 0000:0096  Abs  MKBAUXST
 0000:001E  Abs  MKBBUFF
 0000:001A  Abs  MKBHEAD
 0000:0017  Abs  MKBSTATUS
 0000:001C  Abs  MKBTAIL
 0CB0:1EB7       MKFT10
 0CB0:1EDF       MKFT20
 0CB0:1EE9       MKFT30
 0CB0:1EEF       MKFT40
 0CB0:F59D       MMDEVICE
 0CB0:F5E0       MMLSEG
 0CB0:E548       MMRET
 0CB0:F5DE       MMSEGMT
 0230:75DC       MO1SEG
 0230:A750       MO2END
 0CB0:1080       MO2FUN
 0CB0:1082       MO2SEG
 0230:0000       MO2START
 0000:0F91       MONOTBL
 0CB0:9E3D       MOS17
 0000:0359       MOS1AD
 0CB0:DDBE       MOS2ND70
 0CB0:DDD4       MOS2ND71
 0CB0:DDEA       MOS2ND72
 0CB0:DE00       MOS2ND73
 0CB0:E418       MOS2ND74
 0CB0:DE16       MOS2ND75
 0CB0:DE2C       MOS2ND76
 0CB0:DE42       MOS2ND77
 0CB0:DE66       MOS2NDXX
 0CB0:F5DA       MOSADDR
 0CB0:7089       MOSBYE
 0CB0:FEB8       MOSCALL
 0CB0:3B24       MOSDDINT
 0CB0:D386       MOSDEMO
 0CB0:D380       MOSDEMO1
 0CB0:FEC6       MOSEND
 0230:38CE       MOSERROR
 0CB0:76C2       MOSEXT00
 0CB0:76FC       MOSEXT02
 0CB0:770F       MOSEXT03
 0CB0:7803       MOSEXT04
 0CB0:7816       MOSEXT05
 0CB0:784C       MOSEXT06
 0CB0:784D       MOSEXT07
 0CB0:7AC5       MOSEXT08
 0CB0:7BDE       MOSEXT09
 0CB0:7C3E       MOSEXT0A
 0CB0:7C62       MOSEXT0B
 0CB0:7E15       MOSEXT0C
 0CB0:8053       MOSEXT0D
 0CB0:870B       MOSEXT22
 0CB0:88C3       MOSEXT23
 0CB0:5120       MOSFUN00
 0CB0:6786       MOSFUN01
 0CB0:67D5       MOSFUN02
 0CB0:680D       MOSFUN03
 0CB0:6835       MOSFUN04
 0CB0:685D       MOSFUN05
 0CB0:6885       MOSFUN06
 0CB0:6953       MOSFUN07
 0CB0:698B       MOSFUN08
 0CB0:69C3       MOSFUN09
 0CB0:6A09       MOSFUN0A
 0CB0:6AE2       MOSFUN0B
 0CB0:6B40       MOSFUN0C
 0CB0:527D       MOSFUN0D
 0CB0:52DD       MOSFUN0E
 0230:020E       MOSFUN0F
 0230:022E       MOSFUN10
 0230:0251       MOSFUN11
 0230:0271       MOSFUN12
 0230:0323       MOSFUN13
 0230:03C9       MOSFUN14
 0230:03EC       MOSFUN15
 0230:040F       MOSFUN16
 0230:0504       MOSFUN17
 0CB0:6C6C       MOSFUN18
 0CB0:532C       MOSFUN19
 0230:06C0       MOSFUN1A
 0CB0:5334       MOSFUN1B
 0CB0:536F       MOSFUN1C
 0CB0:6C6C       MOSFUN1D
 0CB0:6C6C       MOSFUN1E
 0CB0:537A       MOSFUN1F
 0CB0:6C6C       MOSFUN20
 0230:06CF       MOSFUN21
 0230:06F2       MOSFUN22
 0230:0715       MOSFUN23
 0230:0777       MOSFUN24
 0CB0:5385       MOSFUN25
 0CB0:53C3       MOSFUN26
 0230:0798       MOSFUN27
 0230:07BB       MOSFUN28
 0CB0:5421       MOSFUN29
 0CB0:5592       MOSFUN2A
 0CB0:55AB       MOSFUN2B
 0CB0:56C6       MOSFUN2C
 0CB0:56D0       MOSFUN2D
 0CB0:5734       MOSFUN2E
 0230:07DE       MOSFUN2F
 0CB0:573C       MOSFUN30
 0CB0:5776       MOSFUN31
 0CB0:57D8       MOSFUN32
 0CB0:580B       MOSFUN33
 0CB0:7529       MOSFUN34
 0CB0:584E       MOSFUN35
 0CB0:5870       MOSFUN36
 0CB0:596D       MOSFUN37
 0CB0:5988       MOSFUN38
 0230:0EDE       MOSFUN39
 0230:0FCC       MOSFUN3A
 0230:113B       MOSFUN3B
 0230:13A4       MOSFUN3C
 0230:1493       MOSFUN3D
 0230:14C4       MOSFUN3E
 0230:14E5       MOSFUN3F
 0230:1506       MOSFUN40
 0230:1549       MOSFUN41
 0230:15B5       MOSFUN42
 0230:1640       MOSFUN43
 0230:247C       MOSFUN44
 0230:1713       MOSFUN45
 0230:1747       MOSFUN46
 0230:1796       MOSFUN47
 0CB0:5A31       MOSFUN48
 0CB0:5B2A       MOSFUN49
 0CB0:5B63       MOSFUN4A
 0CB0:5D1A       MOSFUN4B
 0CB0:66B5       MOSFUN4C
 0CB0:66C6       MOSFUN4D
 0230:1814       MOSFUN4E
 0230:1992       MOSFUN4F
 0CB0:6C71       MOSFUN52
 0CB0:6CB5       MOSFUN53
 0CB0:66D2       MOSFUN54
 0CB0:6D6C       MOSFUN55
 0230:1B56       MOSFUN56
 0230:1D1C       MOSFUN57
 0230:1DA3       MOSFUN58
 0230:1EF9       MOSFUN59
 0230:1F33       MOSFUN5A
 0230:2075       MOSFUN5B
 0230:2099       MOSFUN5C
 0CB0:6DBC       MOSFUN5D
 0CB0:6DDE       MOSFUN5E
 0CB0:6E35       MOSFUN5F
 0CB0:6E45       MOSFUN60
 0CB0:6C6C       MOSFUN61
 0CB0:6E61       MOSFUN63
 0230:21A4       MOSFUN65
 0230:21A4       MOSFUN66
 0230:21AE       MOSFUN67
 0230:2254       MOSFUN68
 0230:22B3       MOSFUN6C
 0CB0:5775       MOSFUNXX
 0CB0:36EE       MOSHEMAN
 0230:66B0       MOSI9B1
 0230:6794       MOSI9C
 0230:6775       MOSI9D
 0230:675F       MOSI9D1
 0230:676B       MOSI9D2
 0230:6759       MOSI9D5
 0230:66F2       MOSI9F
 0230:6702       MOSI9F2
 0230:6710       MOSI9F3
 0CB0:9866       MOSID
 0CB0:F6A7       MOSINIT
 0CB0:A0BF       MOSINT06
 0CB0:CEEE       MOSINT09
 0CB0:A86F       MOSINT10
 0CB0:1392       MOSINT13
 0CB0:40D0       MOSINT15
 0CB0:AA0E       MOSINT16
 0CB0:C6E4       MOSINT17
 0CB0:4F7D       MOSINT20
 0CB0:4F82       MOSINT21
 0CB0:4DF7       MOSINT23
 0CB0:4DF8       MOSINT24
 0CB0:4DFB       MOSINT25
 0CB0:4E53       MOSINT26
 0CB0:4F55       MOSINT27
 0CB0:740A       MOSINT28
 0CB0:763C       MOSINT38
 0CB0:DDB3       MOSINT70
 0CB0:DDC9       MOSINT71
 0CB0:DDDF       MOSINT72
 0CB0:DDF5       MOSINT73
 0CB0:E3E6       MOSINT74
 0CB0:DE0B       MOSINT75
 0CB0:DE21       MOSINT76
 0CB0:DE37       MOSINT77
 0CB0:DE4D       MOSINTXX
 0CB0:E549       MOSITASK
 0230:A47D       MOSLIM0
 0CB0:3065       MOSLIMAN
 0230:38EA       MOSMIMAN
 0CB0:4DDF       MOSOLDFN
 0CB0:70EE       MOSRESTORE
 0CB0:947E       MOSRTASK
 0CB0:6FD8       MOSSAVER
 0CB0:0000       MOSSTART
 0CB0:3052       MOSSTDAUX
 0CB0:9244       MOSSTDCLK
 0CB0:3052       MOSSTDIN
 0CB0:3052       MOSSTDNUL
 0CB0:3052       MOSSTDOUT
 0CB0:3052       MOSSTDPRN
 0CB0:6FFB       MOSSV1
 0CB0:E456       MOUCALL
 1C9D:0000       MSCALL
 0CB0:94AE       MSRT10
 0CB0:96F0       MSRT100
 0CB0:9700       MSRT110
 0CB0:94BD       MSRT12
 0CB0:9721       MSRT120
 0CB0:94C6       MSRT13
 0CB0:979C       MSRT130
 0CB0:972B       MSRT130A
 0CB0:9754       MSRT130B
 0CB0:9764       MSRT130C
 0CB0:976D       MSRT130D
 0CB0:9738       MSRT135A
 0CB0:94CC       MSRT14
 0CB0:97F0       MSRT140
 0CB0:97BA       MSRT145
 0CB0:94E0       MSRT14A
 0CB0:94E6       MSRT14B
 0CB0:94EA       MSRT15
 0CB0:97C5       MSRT150
 0CB0:97CC       MSRT151
 0CB0:97E1       MSRT152
 0CB0:94F5       MSRT17
 0CB0:9502       MSRT20
 0CB0:97F4       MSRT200
 0CB0:951A       MSRT30
 0CB0:9813       MSRT300
 0CB0:952C       MSRT31
 0CB0:952E       MSRT32
 0CB0:9543       MSRT33
 0CB0:956B       MSRT33A
 0CB0:9571       MSRT34
 0CB0:958F       MSRT35
 0CB0:9593       MSRT36
 0CB0:95B2       MSRT40
 0CB0:9818       MSRT400
 0CB0:9496       MSRT5
 0CB0:962C       MSRT50
 0CB0:981B       MSRT500
 0CB0:9652       MSRT60
 0CB0:966C       MSRT80
 0CB0:967E       MSRT81
 0CB0:96B9       MSRT85
 0CB0:96CF       MSRT90
 0CB0:9823       MSRTERR
 0230:3228       NEXTNM
 0CB0:A9A7       NOSBUF
 0230:674B       NOSPECVID
 0CB0:10EE       NOSWITCH
 0230:0E8C       NOSWT
 0CB0:9E57       NOTNUL
 0CB0:70ED       NOTSLA
 0CB0:708C       NOTYET
 0CB0:9D26       NULINTR
 0230:2B0D       NULLPOLL8
 0230:2B0D       NULLPOLL9
 0CB0:F598       OG4013
 0000:2090       OINT13
 0000:2264       OINT74
 0230:3814       OKCHAR
 0CB0:10FA       OKSWITCH
 0230:0E98       OKSWT
 0000:0090  Abs  OK_STAT
 1C9D:1654       OPENDEV
 0230:9E5A       OPENFILE
 0CB0:16F0       ORIG13
 0CB0:174A       ORIG13A
 0CB0:174E       ORIG13X
 0CB0:9EC3       OT1B
 0CB0:9E95       OT1F
 0CB0:9E9F       OTELOOP
 0CB0:9EB1       OTEOK
 0000:0676       OURBUF
 0CB0:9E02       OUT17
 0CB0:44DE       OUTANSI
 0CB0:9ECF       OUTEND
 0CB0:1CA7       OUTENTRY
 0230:6B0A       OUTKBCTL
 0CB0:9E43       OUTPUT
 0000:065C       P1
 0000:0660       P2
 0000:0664       P3
 0000:0F4B       PALOVR
 0000:0FE9       PAMSKIP
 0230:6981       PASS1
 0230:6995       PASS2
 0230:6998       PASS3
 0230:696B       PASSON
 0CB0:D343       PATDEMO1
 0CB0:7027       PATDEMO2
 0230:2F19       PATHFIND
 0000:0668       PC
 0CB0:C987       POLLCONT
 0CB0:C97E       POLLDONE
 0000:229C       POLLEND
 0CB0:C95D       POLLLPT
 0000:2278       POLLSTART
 0000:006E  Abs  POLLTIM
 0CB0:C967       POLLTIME
 0230:746A       PRCH
 0230:7470       PRINT_STAT
 1C9D:0DEE       PROCNFG
 0230:746D       PRSTR
 0CB0:1A09       PRT10
 0CB0:1A14       PRT20
 0CB0:C6AD       PRTCVECT
 0CB0:1A01       PRTSTR
 0CB0:C6B5       PRTSVECT
 0CB0:E4B7       PS2CALL
 0000:1017       PS2MOUSE
 0CB0:C7EC       PTRINVLD
 0CB0:C7B7       PTRNOSPL
 0CB0:C7AC       PTRSPLNXT
 0CB0:C789       PTRSPLSG
 0CB0:C7F1       PTRXIT
 0CB0:C7D5       PTR_LPT
 0230:2E40       PUTFAT
 0230:8555       RANDOM
 0CB0:CD89       RCP_DONE
 0CB0:CD92       RCP_EXIT
 0CB0:CD38       RCP_OK
 0CB0:CD5E       RCP_RES
 0230:8925       RDBF
 0230:734C       RDCH0
 0230:735C       RDCH1
 0230:736A       RDCH2
 0230:7370       RDCH3
 0230:87B8       RDDATA
 0230:87B0       RDDIR
 0230:8736       RDFAT
 0000:0061  Abs  RDTRACK
 0CB0:CEE9       RE9A
 0230:7333       READCH
 0230:48AC       READGUTS
 0230:6A22       REG0
 0230:6A58       REG1
 0CB0:1764       REG13A
 0CB0:1773       REG13B
 0CB0:1819       REG13IRET
 0CB0:183D       REG13IRET2
 0230:69BA       REGISTER
 0CB0:17E1       REGR13A
 0CB0:17F3       REGR13B
 0CB0:174F       REGR13PRI
 0CB0:CEAB       REGRAB09
 0CB0:17AE       REGRAB13
 0CB0:1795       REGRAB13A
 0CB0:178B       REGRAB13_DATA
 0CB0:D24C       REGRAB8_DATA
 0CB0:CE92       REGRAB9A
 0CB0:CE88       REGRAB9_DATA
 0CB0:DE8C       REGRSEC0A
 0CB0:DEA7       REGRSEC0B
 0CB0:DEC2       REGRSEC0C
 0CB0:DEDD       REGRSEC0D
 0CB0:DEF8       REGRSEC0E
 0CB0:DF13       REGRSEC0F
 0CB0:9988       REMAL1
 0CB0:99BC       REMAL2
 0CB0:99D9       REMAL3
 0CB0:99EB       REMAL4
 0CB0:9977       REMALIAS
 0CB0:9A16       REMP10
 0CB0:9A16       REMP20
 0CB0:99F2       REMPOLL00
 0000:0012  Abs  REMTIM
 0CB0:D763       REORDLST
 0000:0F4E       REQUEST
 0000:0013  Abs  RESERVED
 0CB0:CCF1       RESERVE_COM_PORT
 0CB0:C881       RESERVE_LPT_PORT
 0CB0:9D6D       REXIT
 0CB0:C907       RLP_EXIT
 0CB0:C8FE       RLP_OK
 0CB0:986D       RLSNETBIOS
 0CB0:98BB       RNBX
 0230:6D7D       RSTBIO
 0CB0:8D8C       RSTCNTXT
 0CB0:7562       RSTINMOS
 0CB0:7491       SAFE28
 0230:6D5D       SAVBIO
 0CB0:8C86       SAVCNTXT
 0CB0:8C1A       SAVTABLE
 0CB0:1088       SBIOS
 0230:0000       SBIOS2
 0CB0:B2F0       SCANGUTS
 0000:03C8       SCB13BSY
 0000:02D1       SCB13BUF
 0000:03CA       SCB13EOC
 0000:03C9       SCB13SK1
 0000:03C7       SCB15ACT
 0000:03C6       SCB15POST
 0000:0401       SCB15TCB
 0000:0523       SCB286DEC
 0000:027E       SCB4013
 0000:02C1       SCBALTF1
 0000:026B       SCBAUXTM
 0000:0329       SCBAVSIZ
 0000:05F8       SCBBANKIN
 0000:03CC       SCBBDBBSY
 0000:0244       SCBBDBPF
 0000:0246       SCBBDBPL
 0000:051D       SCBBOOT
 0000:05E2       SCBBOOTDRV
 0000:03CD       SCBBSYTCB
 0000:04CD       SCBBUFF
 0000:02CF       SCBBUFSZ
 0000:056D       SCBCACH
 0000:05F4       SCBCALL74
 0000:058F       SCBCBDB
 0000:0587       SCBCBITS
 0000:054E       SCBCBK
 0000:058B       SCBCBMAP
 0000:0589       SCBCBMSZ
 0000:058D       SCBCCLR
 0000:0564       SCBCCUR
 0000:0569       SCBCD
 0000:0566       SCBCELE
 0000:0560       SCBCHDL
 0000:04F6       SCBCIN24
 0000:0552       SCBCK
 0000:061D       SCBCLBDB
 0000:0619       SCBCLBX
 0000:061B       SCBCLCX
 0000:061F       SCBCLSCT
 0000:0623       SCBCLSEG
 0000:0562       SCBCLST
 0000:0568       SCBCMTR
 0000:05A0       SCBCNTFLG
 0000:0323       SCBCNTRY
 0000:0250       SCBCNTXT
 0000:0550       SCBCNUM
 0000:057F       SCBCNXT
 0CB0:9A1C       SCBCOM24
 0000:02BB       SCBCON417
 0000:026D       SCBCONSZ
 0000:04FC       SCBCPSEG
 0000:04FF       SCBCPSIZ
 0000:0518       SCBCRIT
 0000:056F       SCBCSAVE
 0000:0591       SCBCSEG
 0000:0593       SCBCSEGP
 0000:0554       SCBCSYSK
 0000:04F0       SCBCTXSZ
 0000:054C       SCBCUOB
 0000:055E       SCBCUPF
 0000:0327       SCBCURAD
 0000:04C1       SCBCURCNT
 0000:0325       SCBCURSZ
 0000:04C5       SCBCURWRP
 0000:0558       SCBCWF
 0000:055C       SCBCWL
 0000:0583       SCBCWMAX
 0000:0585       SCBCWNUM
 0000:0556       SCBCWRF
 0000:055A       SCBCWRL
 0000:0581       SCBCWSYS
 0000:034B       SCBDBBLEN
 0000:024C       SCBDBBPF
 0000:024E       SCBDBBPL
 0000:034F       SCBDBPRT
 0000:034D       SCBDEBUG
 0000:03BD       SCBDEMO
 0000:03BF       SCBDEMO2
 0000:0496       SCBDOPFLG
 0000:0280       SCBDOSVER
 0000:03C4       SCBDRBSY
 0000:032B       SCBDRIVS
 0000:0493       SCBDRTCB
 0000:032F       SCBDRVR
 0000:0599       SCBDUMP
 0000:04BD       SCBFAR21
 0000:0501       SCBFAR38
 0000:03CB       SCBFLONCE
 0000:056E       SCBFLUSH
 0CB0:1084       SCBFREE
 0000:0248       SCBGFBPF
 0000:024A       SCBGFBPL
 0000:0006  Abs  SCBHLDLEN
 0000:04CB       SCBHLDSS
 0000:05FB       SCBHLDTASK
 0000:05FD       SCBHLDTICK
 0000:05FF       SCBHLDTOCK
 0000:05FB       SCBHOLD
 0000:0540       SCBHP1ALC
 0000:04C7       SCBHP2ADR
 0000:04C9       SCBHP2SIZ
 0000:02CB       SCBHPADR
 0000:0505       SCBHPALC
 0000:02CD       SCBHPSIZ
 0000:03AD       SCBHWCL
 0000:0279       SCBI10OLD
 0000:03EB       SCBI15OFF
 0000:03C5       SCBI15TSL
 0000:025B       SCBIDQ2
 0000:025D       SCBIDQ3
 0000:025F       SCBIDQ4
 0000:0261       SCBIDQ5
 0000:0263       SCBIDQ6
 0000:0265       SCBIDQ7
 0000:0524       SCBIDQP
 0000:02CA       SCBIN08
 0000:03E9       SCBIN60
 0000:0614       SCBIN74
 0000:02C9       SCBINIRQ
 0000:03E2       SCBINIT
 0000:0519       SCBINMOS
 0000:03C3       SCBINSAVE
 0000:05A1       SCBINSWGP
 0000:02BC       SCBIOPTR
 0000:03E3       SCBIRQBNK
 0000:03D6       SCBIRQD0A
 0000:03D8       SCBIRQD0B
 0000:03DA       SCBIRQD0C
 0000:03DC       SCBIRQD0D
 0000:03DE       SCBIRQD0E
 0000:03E0       SCBIRQD0F
 0000:050B       SCBIRQPF
 0000:03FB       SCBKBBIOS
 0000:03E7       SCBKBRATE
 0000:0355       SCBKEY
 0000:0595       SCBLASTFF
 0000:03D1       SCBLASTW1
 0000:03D3       SCBLASTW2
 0000:027D       SCBLDRIVE
 0000:040D  Abs  SCBLEN
 0000:02C3       SCBLOWPR
 0CB0:9C14       SCBLPT1
 0000:0538       SCBMAPVMF
 0000:053C       SCBMAPVSF
 0000:0509       SCBMASTP
 0000:0353       SCBMASTV
 0000:03EA       SCBMCONLY
 0000:02B3       SCBMM6AD
 0000:02B1       SCBMMERR
 0000:02A3       SCBMMFE2
 0000:02A4       SCBMMFEA
 0000:02C0       SCBMMFG
 0000:02A5       SCBMMGRN
 0000:0295       SCBMMHAN
 0000:029B       SCBMMMOD
 0000:0297       SCBMMPTR
 0000:02B7       SCBMMSCB
 0000:029F       SCBMMSUB
 0000:0597       SCBMO2END
 0000:035B       SCBMOSADR
 0000:04E1       SCBMOSEND
 0000:05E5       SCBMOUSE
 0000:0611       SCBMOUSP
 0000:060F       SCBMOUSS
 0000:05E3       SCBMOUTCB
 0000:05E9       SCBMOUVAL
 0000:051F       SCBMSGSEG
 0000:0542       SCBMUSER
 0000:0294       SCBNOI5
 0000:03EC       SCBNORST
 0000:0517       SCBNOSLC
 0000:032C       SCBNOSWT
 0000:0613       SCBNOTSL
 0CB0:9C26       SCBNUL
 0000:0615       SCBORG38
 0000:03E8       SCBOUT60
 0000:059E       SCBPKTIO
 0000:03F9       SCBPOST
 0000:04EE       SCBPRIPF
 0000:03D5       SCBRDRIV
 0000:0625       SCBREG32
 0000:03F1       SCBRESTORE
 0000:05A2       SCBRSTCNT
 0000:05F1       SCBRSTRTC
 0000:05F2       SCBRSTRTP
 0000:03ED       SCBSAVE
 0000:04F2       SCBSCANG
 0000:03C1       SCBSDEMO
 0000:02D3       SCBSHELL
 0000:05FA       SCBSLCNT
 0000:05F9       SCBSLFACT
 0000:0252       SCBSLICE
 0000:04C6       SCBSMPLOW
 0000:04AC       SCBSMSG
 0000:02C2       SCBSPLTM
 0000:0347       SCBSTDAUX
 0CB0:1934       SCBSTDBLK
 0000:033F       SCBSTDCLK
 0CB0:42BE       SCBSTDCON
 0CB0:24D2       SCBSTDHD
 0000:0333       SCBSTDIN
 0000:033B       SCBSTDNUL
 0000:0337       SCBSTDOUT
 0000:0343       SCBSTDPRN
 0000:02C6       SCBSW87
 0000:02C8       SCBSWAF9
 0000:02C7       SCBSWALI
 0000:02C5       SCBSWVQ
 0000:0271       SCBTCBN
 0000:0253       SCBTCBPC
 0000:0240       SCBTCBPF
 0000:0242       SCBTCBPL
 0000:0257       SCBTCBPS
 0000:0255       SCBTCBPV
 0000:0259       SCBTCBVR
 0000:04FA       SCBTCBVS
 0000:03CF       SCBTFIX1
 0000:03D0       SCBTFIX2
 0000:051B       SCBTIMER
 0000:060D       SCBTIMERH
 0000:032E       SCBTSKFG
 0000:0521       SCBTTRAP1
 0000:0522       SCBTTRAP2
 0000:03F5       SCBUPOLL
 0000:035D       SCBUSRF
 0000:0269       SCBVCUPO
 0000:0267       SCBVCUTY
 0000:0495       SCBVDRFLG
 0000:0273       SCBVERSN
 0000:026F       SCBVIDAD
 0000:0544       SCBVIDCHK
 0000:0507       SCBVIDPG
 0000:0548       SCBVMAAL
 0000:0532       SCBVMACNT
 0000:052E       SCBVMAHDL
 0000:0536       SCBVMASEG
 0000:02C4       SCBVMODE
 0000:059D       SCBVNASYS
 0000:0351       SCBVRWAIT
 0000:054A       SCBVSAAL
 0000:052A       SCBVSACNT
 0000:0526       SCBVSAHDL
 0000:04FE       SCBVTYPE
 0000:0403       SCB_COM_OWNER
 0000:0433       SCB_COM_TIMEOUT
 0230:6E5D       SCDN1
 0CB0:CBE5       SCLSXIT
 0230:6E46       SCROLLDN
 0230:6E26       SCROLLUP
 0230:6E3D       SCUP1
 0000:0A80       SEC1SIZE
 0000:0B66       SECBUF
 0000:0B28       SECTCNT
 0000:0B2A       SECTSTR
 0CB0:1C9A       SET100
 0CB0:1C03       SET20
 0CB0:1C1F       SET30
 0CB0:1C4B       SET40
 0CB0:1C53       SET50
 0CB0:1C79       SET53
 0CB0:1C7E       SET55
 0CB0:1C8D       SET60
 0CB0:1C99       SET95
 0CB0:3ED5       SETBDB
 0230:A690       SETBIT
 0CB0:9E66       SETCOMDX
 0230:6E05       SETCP1
 0230:6E25       SETCP2
 0230:6DE6       SETCRSPOS
 0230:6D9D       SETCRSTYP
 0230:6DC5       SETCT0
 0230:6DD1       SETCT1
 1C9D:2770       SETDINT
 0CB0:C2F8       SETEGAPAL
 0230:35FB       SETFREE
 0CB0:2171       SETFTBL
 0230:6CBA       SETH1
 0230:6CC0       SETHCARD
 0230:6C96       SETHERC
 0230:6CD6       SETHRC1
 0230:6B78       SETM0A
 0230:6B83       SETM0B
 0230:6B90       SETM0C
 0230:6BA9       SETM1A
 0230:6BAB       SETM1B
 0230:6BD9       SETM2
 0230:6BF8       SETM2A
 0230:6C1B       SETM2LP
 0230:6C32       SETM3
 0230:6C54       SETM3A
 0230:6C61       SETM4
 0000:0046  Abs  SETMEDID
 0230:6B31       SETMODE
 0230:6C80       SETMONO
 0230:6EBD       SETP0
 0230:6EBE       SETP1A
 0230:6EB1       SETPALET
 0000:0040  Abs  SETPARMS
 0230:A157       SETPHDL
 0CB0:221F       SETS10
 0CB0:2239       SETS40
 0CB0:1BEE       SETTYPE
 0230:7230       SETW0
 0230:723C       SETW1
 0230:7247       SETW2
 0230:7265       SETW3
 0230:7210       SETWG1
 0230:7266       SETWHERC
 0230:7296       SETWHG1
 0230:728C       SETWHGC
 0230:71F8       SETWINDOW
 0230:6B46       SETXX
 0230:6B3D       SETXY
 1C9D:2B2F       SET_ACTUAL
 0CB0:F3E4       SET_CONLY
 0CB0:C27C       SET_KBRATE
 0CB0:A062       SET_TRAP
 0000:0003  Abs  SHARERETRY
 0000:0003  Abs  SHARETICKS
 0CB0:968E       SHNO24
 0CB0:96A0       SHNOWAIT
 0CB0:70C1       SHORTSAVR
 0CB0:66DA       SIM21
 0CB0:108E       SINIT
 0CB0:1090       SINITADDR
 0CB0:708D       SKIPCHK
 0230:6B08       SKIPDAT
 0CB0:9197       SKIPSW
 0000:1014       SKIPSWT
 0000:1013       SKIPSWVS
 0230:387E       SLASH
 0CB0:FDE6       SMPERR
 0CB0:F59C       SMTHERE
 0CB0:15F5       SO2ABS
 0CB0:15F5       SOA1
 0CB0:15FD       SOA2
 0CB0:CBAB       SPLCLOSE
 0CB0:CADA       SPLERR
 0CB0:CB0B       SPLERRA
 0CB0:CB07       SPLERRB
 0CB0:C9C0       SPLFINI
 0CB0:C6CF       SPLMSG1
 0CB0:CA41       SPLONAME
 0CB0:CA4D       SPLONLP
 0CB0:CA1D       SPLOPEN
 0CB0:C9F4       SPLSLUP
 0CB0:CA08       SPLSMOV
 0CB0:CB0D       SPLTIMER
 0CB0:CB22       SPLTIMOUT
 0CB0:CB3E       SPLTMLUP
 0CB0:CB55       SPLTMNXT
 0CB0:CB6D       SPLTMSTO
 0CB0:CB72       SPLTMXIT
 0CB0:CA6D       SPLUNSEC
 0CB0:CAA8       SPLWRITE
 0CB0:CAD3       SPLWX
 0CB0:CACF       SPLWXIT
 0CB0:CAD9       SPLWZ
 0CB0:CAA3       SPLX
 0CB0:C9D1       SPLXIT
 0CB0:CAA6       SPLZ
 0000:2282       SPTIMR
 0CB0:1B6E       SRCH10
 0CB0:1B8E       SRCH20
 0CB0:1B9E       SRCH30
 0CB0:1BA1       SRCH40
 0CB0:1BA2       SRCH50
 0CB0:1B5A       SRCHSEC
 0000:0B32       STARTD
 0CB0:871D       START_TASK
 0CB0:CCDA       STATCOM
 0CB0:CCE2       STATCOM_EXIT
 0CB0:C868       STATLHLD
 0CB0:C860       STATLPT
 0CB0:CE83       STATREM
 0CB0:CC40       STATSPL
 0CB0:C6C5       STATVECT
 0CB0:2180       STFT10
 0CB0:2186       STFT20
 0000:05DC  Abs  STKSIZ
 0CB0:2245       STMX
 0CB0:2254       STMZ
 0230:244B       STTAX0
 0230:6680       STUB15
 0CB0:DA6A       SUSPEND
 0CB0:DA48       SUSPEND2
 0CB0:E0B8       SWCALL
 0CB0:8F0A       SWCNTXT
 0230:72D2       SWHG1
 0230:72CF       SWHGC
 0CB0:91C9       SWITCHGP
 0CB0:9198       SWITCHIF
 0000:0B76       SWITCHMSG
 0CB0:91A8       SWITCHTASK
 0CB0:909C       SWREALRAM
 0CB0:8F24       SWTASKRAM
 0CB0:90BA       SWVIDRAM
 0CB0:9141       SWVIDSAVE
 0000:0B33       T3100
 0000:0F59       T3D5TBL
 9999:013B  Abs  TCB$ASI
 9999:013A  Abs  TCB$CA
 9999:0146  Abs  TCB$EB
 9999:0144  Abs  TCB$EBP
 9999:013D  Abs  TCB$EF
 9999:0142  Abs  TCB$ER
 9999:0141  Abs  TCB$HB
 9999:0136  Abs  TCB$HDR
 9999:013C  Abs  TCB$IQ
 9999:0140  Abs  TCB$KP
 9999:013E  Abs  TCB$TCP
 9999:0803  Abs  TCB$WRAP
 9999:028A  Abs  TCB%BLEN
 9999:05A4  Abs  TCB%CBOT
 9999:0594  Abs  TCB%CP0A
 9999:059A  Abs  TCB%CP3F
 9999:059C  Abs  TCB%DBUF
 9999:05AA  Abs  TCB%DLEN
 9999:0189  Abs  TCB%EBUF
 9999:0288  Abs  TCB%ECOL
 9999:05B5  Abs  TCB%FLGS
 9999:05B4  Abs  TCB%INSF
 9999:05A7  Abs  TCB%LREF
 9999:05AC  Abs  TCB%LTC
 9999:05A8  Abs  TCB%MAXC
 9999:05A9  Abs  TCB%MAXL
 9999:05B0  Abs  TCB%NMXB
 9999:05A6  Abs  TCB%NSTLN
 9999:0592  Abs  TCB%RP0A
 9999:0598  Abs  TCB%RP3F
 9999:0590  Abs  TCB%RS0A
 9999:0596  Abs  TCB%RS3F
 9999:038F  Abs  TCB%SB0A
 9999:0604  Abs  TCB%SB3F
 9999:05A5  Abs  TCB%STCL
 9999:05B2  Abs  TCB%STGC
 9999:05AE  Abs  TCB%TTC
 9999:07E4  Abs  TCB03B8
 9999:07E5  Abs  TCB03BF
 9999:02D3  Abs  TCB13ONCE
 9999:02CA  Abs  TCB15AX
 9999:02CC  Abs  TCB15CX
 9999:02DA  Abs  TCB15SUPR
 9999:037E  Abs  TCB24NEST
 9999:0806  Abs  TCB28CNT
 9999:0808  Abs  TCB28TIMER
 9999:080B  Abs  TCB3C2
 9999:00AE  Abs  TCB87SAV
 9999:0602  Abs  TCBACTSEG
 9999:0117  Abs  TCBALT999
 9999:0772  Abs  TCBALTAC
 9999:0773  Abs  TCBALTACF
 9999:0774  Abs  TCBALTDN
 9999:0110  Abs  TCBALTNUM
 9999:0801  Abs  TCBANSI
 9999:00C6  Abs  TCBAPV0A
 9999:00CA  Abs  TCBAPV0B
 9999:00CE  Abs  TCBAPV0C
 9999:00D2  Abs  TCBAPV0D
 9999:00D6  Abs  TCBAPV0E
 9999:00DA  Abs  TCBAPV0F
 9999:00DE  Abs  TCBAPV70
 9999:00E2  Abs  TCBAPV71
 9999:00E6  Abs  TCBAPV72
 9999:00EA  Abs  TCBAPV73
 9999:00EE  Abs  TCBAPV74
 9999:00F2  Abs  TCBAPV75
 9999:00F6  Abs  TCBAPV76
 9999:00FA  Abs  TCBAPV77
 9999:07D0  Abs  TCBATTEND
 9999:0711  Abs  TCBAUTOE
 9999:0070  Abs  TCBAUXBT
 9999:0071  Abs  TCBAUXCT
 9999:012E  Abs  TCBAUXTM
 9999:00BE  Abs  TCBBASEG
 9999:0760  Abs  TCBBATNM
 9999:05DD  Abs  TCBBAUD
 9999:02CE  Abs  TCBBBSY
 9999:0376  Abs  TCBBDBWF
 9999:0014  Abs  TCBBEGAD
 9999:07E9  Abs  TCBBPCNT
 9999:006B  Abs  TCBBRK
 9999:05B6  Abs  TCBBRKFG
 9999:0766  Abs  TCBCACER
 9999:00BD  Abs  TCBCAMON
 9999:0383  Abs  TCBCDAY
 9999:005E  Abs  TCBCDBPC
 9999:005C  Abs  TCBCDBPF
 9999:007F  Abs  TCBCDFT
 9999:0061  Abs  TCBCDRIV
 9999:037F  Abs  TCBCHDR
 9999:0362  Abs  TCBCHN13
 9999:078B  Abs  TCBCHN8
 9999:0776  Abs  TCBCHN9
 9999:007A  Abs  TCBCLASS
 9999:0816  Abs  TCBCLKDEV
 9999:0080  Abs  TCBCMAP
 9999:0124  Abs  TCBCMODE
 9999:07B0  Abs  TCBCNTXPT
 9999:0036  Abs  TCBCOLS
 9999:037B  Abs  TCBCON417
 9999:05D0  Abs  TCBCONDD
 9999:081A  Abs  TCBCONDEV
 9999:0188  Abs  TCBCONFG
 9999:02DB  Abs  TCBCONLY
 9999:07B5  Abs  TCBCOUNT
 9999:003E  Abs  TCBCPOS
 9999:076D  Abs  TCBCRIT
 9999:02AA  Abs  TCBCRIT24
 9999:07E3  Abs  TCBCRTIO
 9999:0088  Abs  TCBCTXP
 9999:004E  Abs  TCBCTYP
 9999:037C  Abs  TCBD40F
 9999:02CF  Abs  TCBDBSY
 9999:0377  Abs  TCBDBWAX
 9999:0379  Abs  TCBDBWCX
 9999:05D8  Abs  TCBDCOFS
 9999:05DA  Abs  TCBDCOL
 9999:07F4  Abs  TCBDDJMP1
 9999:07F9  Abs  TCBDDJMP2
 9999:0830  Abs  TCBDDPF
 9999:0182  Abs  TCBDEVHDR
 9999:0802  Abs  TCBDIDKEY
 9999:0824  Abs  TCBDINFO
 9999:05D4  Abs  TCBDLOFS
 9999:05D6  Abs  TCBDLSEG
 9999:0186  Abs  TCBDNUM
 9999:080E  Abs  TCBDPBPF
 9999:0820  Abs  TCBDPBPO
 9999:075C  Abs  TCBDPMI
 9999:075E  Abs  TCBDPMISEL
 9999:0062  Abs  TCBDTA
 9999:0125  Abs  TCBEGA
 9999:088C  Abs  TCBEGAPAL
 9999:00AC  Abs  TCBEMS
 9999:07F2  Abs  TCBEMSSEG
 9999:0016  Abs  TCBENDAD
 9999:0809  Abs  TCBEQUIP
 9999:0020  Abs  TCBERRCOD
 9999:00C0  Abs  TCBERRVOL
 9999:07B7  Abs  TCBEXEC3D
 9999:0828  Abs  TCBFCBPTR
 9999:075A  Abs  TCBFLIMIT
 9999:080A  Abs  TCBFLUSH
 9999:011E  Abs  TCBFSAVR
 9999:079F  Abs  TCBFWAKE
 9999:0387  Abs  TCBHDL24
 9999:02AB  Abs  TCBHOLD
 9999:011A  Abs  TCBI9FLG
 9999:0118  Abs  TCBI9SEG
 9999:002C  Abs  TCBIBASE
 9999:002E  Abs  TCBIBSIZ
 9999:0010  Abs  TCBID
 9999:02D2  Abs  TCBIN10
 9999:0804  Abs  TCBINMOS
 9999:02D0  Abs  TCBIRETRY
 9999:076C  Abs  TCBIRQCNT
 9999:07D4  Abs  TCBIRQPN
 9999:07E0  Abs  TCBIRQSEC
 9999:07EF  Abs  TCBKBANHI
 9999:07EE  Abs  TCBKBANLOW
 9999:07EC  Abs  TCBKBANSI
 9999:0102  Abs  TCBKBAX
 9999:02D8  Abs  TCBKBCMD
 9999:00FE  Abs  TCBKBCNT
 9999:0113  Abs  TCBKBCTL
 9999:0104  Abs  TCBKBCX
 9999:0100  Abs  TCBKBFCT
 9999:00FF  Abs  TCBKBFST
 9999:0101  Abs  TCBKBMAX
 9999:07F0  Abs  TCBKBOFF
 9999:02D7  Abs  TCBKBRATE
 9999:02D9  Abs  TCBKBSTG
 9999:0106  Abs  TCBKBTCK
 9999:0108  Abs  TCBKEYRDY
 9999:0032  Abs  TCBKSHF2
 9999:0031  Abs  TCBKSHFT
 9999:0112  Abs  TCBKTGGL
 9999:07AB  Abs  TCBL40
 9999:07AA  Abs  TCBL43
 9999:0090  Abs  TCBLAGCNT
 9999:082F  Abs  TCBLASTDRV
 9999:0114  Abs  TCBLASTKY
 0000:0E8D  Abs  TCBLEN
 9999:0134  Abs  TCBLLSER
 9999:075B  Abs  TCBLOCK
 9999:02B2  Abs  TCBLOCKER
 9999:0030  Abs  TCBLOOP
 9999:0076  Abs  TCBLPTXL
 9999:0116  Abs  TCBLSCAN
 9999:07EA  Abs  TCBLSTTL
 9999:080C  Abs  TCBMBPF
 9999:00B2  Abs  TCBMCOUNT
 9999:08B1  Abs  TCBMINSTK
 9999:0094  Abs  TCBMMHDL
 9999:009C  Abs  TCBMMPGS
 9999:0034  Abs  TCBMODE
 9999:011B  Abs  TCBMOSKEY
 9999:070A  Abs  TCBMOUSE
 9999:0706  Abs  TCBMPORT
 9999:02A6  Abs  TCBMREADY
 9999:0708  Abs  TCBMTIMER
 9999:0012  Abs  TCBNCADR
 9999:0060  Abs  TCBNDRIV
 9999:05B7  Abs  TCBNEST
 9999:0361  Abs  TCBNEST13
 9999:078A  Abs  TCBNEST8
 9999:0775  Abs  TCBNEST9
 9999:08A0  Abs  TCBNO24
 9999:011F  Abs  TCBNOGET
 9999:006C  Abs  TCBNTRY
 9999:010C  Abs  TCBNXTDD
 9999:02D4  Abs  TCBOCLASS
 9999:02D5  Abs  TCBODRIV
 9999:0068  Abs  TCBOLDMBPF
 9999:0066  Abs  TCBOLDPSP
 9999:0051  Abs  TCBOMODE
 9999:07B8  Abs  TCBOPEN60
 9999:05B8  Abs  TCBORGSP
 9999:02A2  Abs  TCBORIG1C
 9999:029E  Abs  TCBORIG8
 9999:0035  Abs  TCBPAGE
 9999:0050  Abs  TCBPAL
 9999:07E2  Abs  TCBPAM
 9999:07AD  Abs  TCBPAMFG
 9999:0290  Abs  TCBPARM2E
 9999:070F  Abs  TCBPARNT
 9999:0187  Abs  TCBPCNT
 9999:003A  Abs  TCBPGLN
 9999:003C  Abs  TCBPGST
 9999:001C  Abs  TCBPOLL
 9999:05DB  Abs  TCBPORT
 9999:038B  Abs  TCBPOST
 9999:0600  Abs  TCBPRESEG
 9999:0021  Abs  TCBPRGNM
 9999:0018  Abs  TCBPRI
 9999:07AE  Abs  TCBPRIPN
 9999:00B0  Abs  TCBPRITM
 9999:0127  Abs  TCBPRNDX
 9999:0128  Abs  TCBPRPRT
 9999:011D  Abs  TCBPRT61
 9999:02B1  Abs  TCBPSCAN
 9999:02DE  Abs  TCBPSP
 0000:02DE  Abs  TCBPSPOFF
 9999:0122  Abs  TCBPTMR
 9999:07FE  Abs  TCBREBOOT
 9999:00C4  Abs  TCBRETC
 9999:0037  Abs  TCBROWS
 9999:02D6  Abs  TCBRSTOK
 9999:07A1  Abs  TCBSAFE28
 9999:0385  Abs  TCBSAV24
 9999:0038  Abs  TCBSCLN
 9999:010E  Abs  TCBSCRDD
 9999:081E  Abs  TCBSECSIZ
 9999:0812  Abs  TCBSFTPTR
 9999:0759  Abs  TCBSHARE
 9999:07A0  Abs  TCBSIORB
 9999:02B3  Abs  TCBSLCNT
 9999:0019  Abs  TCBSLICE
 9999:008A  Abs  TCBSP
 9999:0132  Abs  TCBSPLTC
 9999:0072  Abs  TCBSPLTM
 9999:0130  Abs  TCBSPLTP
 9999:0074  Abs  TCBSPOOL
 9999:0126  Abs  TCBSPSKP
 9999:05BA  Abs  TCBSREG
 9999:0E8D  Abs  TCBSTACK
 9999:0000  Abs  TCBSTART
 9999:001B  Abs  TCBSTAT
 9999:07BC  Abs  TCBSTATE
 9999:076E  Abs  TCBSTATION
 9999:008C  Abs  TCBSTKP
 9999:008E  Abs  TCBSVSP
 9999:07E7  Abs  TCBSWFLG
 9999:07E8  Abs  TCBSWITCH
 9999:07B2  Abs  TCBT3X4
 9999:0008  Abs  TCBTCBPN
 9999:000A  Abs  TCBTCBPP
 9999:07E6  Abs  TCBTCCNT
 9999:07B3  Abs  TCBTCHIGH
 9999:07B4  Abs  TCBTCLOW
 9999:02DD  Abs  TCBTCTND
 9999:02DC  Abs  TCBTCTST
 9999:02E0  Abs  TCBTEXT2E
 9999:005A  Abs  TCBTFBPF
 9999:012A  Abs  TCBTOAX
 9999:012C  Abs  TCBTOCX
 9999:0389  Abs  TCBTPFRM
 9999:011C  Abs  TCBTRAPCD
 9999:028C  Abs  TCBTSK38
 9999:037D  Abs  TCBTSLNST
 9999:076F  Abs  TCBTSRFLG
 9999:006E  Abs  TCBTTRY
 9999:0001  Abs  TCBTYPE
 9999:07A6  Abs  TCBUNREG
 9999:070B  Abs  TCBUPOLL
 9999:007B  Abs  TCBUSER
 9999:07BE  Abs  TCBUSERAREA
 9999:02C8  Abs  TCBVERSN
 9999:006A  Abs  TCBVFLG
 9999:0770  Abs  TCBVIDAD
 9999:07CF  Abs  TCBVIDEO
 9999:0054  Abs  TCBVIDH1
 9999:0056  Abs  TCBVIDP1
 9999:07A2  Abs  TCBVIDSET
 9999:0058  Abs  TCBVIDW2
 9999:00A4  Abs  TCBVMHDL
 9999:00A8  Abs  TCBVMPGS
 9999:0053  Abs  TCBVRAM
 9999:0120  Abs  TCBVRTIM
 9999:001A  Abs  TCBWAIT
 9999:07FF  Abs  TCBWATCH
 9999:00BA  Abs  TCBWINFO
 9999:0052  Abs  TCBWINPO
 9999:07E1  Abs  TCBWPEND
 9999:00B6  Abs  TCBWTAX
 9999:00B8  Abs  TCBWTCX
 9999:00BC  Abs  TCBWTFLG
 9999:085C  Abs  TCB_COM_HOLD
 9999:02C4  Abs  TCB_MACHINE_ID
 9999:02B4  Abs  TCB_MACHINE_NAME
 9999:0764  Abs  TCB_MALLOC_MARK
 9999:02C6  Abs  TCB_MALLOC_STRATEGY
 1C9D:16E4       TEMPCACHE
 0CB0:6B9B       TERMINATE
 0230:A6AB       TESTBIT
 0CB0:7471       TESTMOS28
 0230:67A7       TFN
 0CB0:D549       TIMCHK
 0CB0:1AB8       TIMESET
 0230:389F       TIMESTAMP
 0CB0:1AD0       TIMETEST
 0CB0:D527       TIMPARM
 0CB0:F5D6       TMPHEAP
 0CB0:F5D8       TMPHPSIZ
 0230:798C       TODRIVER
 0230:7C07       TOINT24
 9999:058F  Abs  TOPSB0A
 9999:0706  Abs  TOPSB3F
 0000:0A7C       TRACKTABLE
 0000:0D96       TRUEBOOT
 0230:4CEE       TRUNCGUTS
 0CB0:DB00       TSL
 0000:1015       TSL8STAT
 0CB0:9E1C       TSR17
 0CB0:9E38       TSR17END
 0CB0:9E27       TSR17LP
 0CB0:1AEE       TTOVER
 0000:0B27       TYPRTR
 0230:6A88       UPDATELEDS
 0CB0:F855       UPDFREE
 0230:9F54       UPD_DIR
 0CB0:D88D       USERPOLL
 0000:0F47       VDRIRQ
 0000:0F46       VDRSKIP
 0000:0062  Abs  VERTRACK
 0230:526F       VF00
 0230:75A7       VIDOFF
 0CB0:A988       VIDRAM
 0CB0:A998       VIDRAM1A
 0CB0:9ED7       VINIT
 0CB0:9EEA       VINIT1
 0CB0:9EF1       VINIT3
 0230:75B8       WORDMOV
 0CB0:E2BA       WORDMOVE
 0CB0:C6CD       WORDTEN
 0230:8B06       WRBF
 0230:6E7F       WRCHA0
 0230:6E90       WRCHA1
 0230:6E9C       WRCHA2
 0230:6EA2       WRCHA3
 0230:6E66       WRCHATR
 0230:6EB0       WRCHAX
 0230:72E8       WRCHO
 0230:730D       WRCHO0
 0230:72FF       WRCHO0A
 0230:7313       WRCHO1
 0230:731F       WRCHO2
 0230:7325       WRCHO3
 0230:7332       WRCHOX
 0230:888F       WRFAT
 0CB0:6770       WRITDEV
 0230:49E7       WRITEGUTS
 0230:888F       WRSECTOR
 0230:70A6       WRSG1
 0230:70AE       WRSG2
 0230:70BB       WRSG3
 0230:70C3       WRSG4
 0230:70D0       WRSG5
 0230:716D       WRSH0
 0230:712C       WRSH0A
 0230:7194       WRSH1
 0230:719C       WRSH2
 0230:71AC       WRSH3
 0230:71B4       WRSH4
 0230:71C4       WRSH5
 0230:71CC       WRSH6
 0230:71DC       WRSH7
 0230:71E4       WRSH8
 0230:71F7       WRSH9
 0230:7116       WRSHERC
 0230:70D1       WRST0
 0230:70E8       WRST1
 0230:70FE       WRST2
 0230:7103       WRST3
 0230:7109       WRST4
 0230:7089       WRSTG0
 0230:705F       WRSTR
 0230:7115       WRSTX
 0230:6F0D       WRT0
 0230:6F07       WRTBIO
 0000:0041  Abs  WRTTRACK
 0230:6EE6       WRTTY
 0230:6F3A       WRTTY08
 0230:6F42       WRTTY08A
 0230:6F2D       WRTTY0D
 0230:6FDB       WRTTY10
 0230:7003       WRTTY11
 0230:700E       WRTTY12
 0230:7038       WRTTY13
 0230:6F45       WRTTY2
 0230:6F57       WRTTY3
 0230:6F5D       WRTTY4
 0230:6F64       WRTTY5
 0230:6F73       WRTTY5A
 0230:6F78       WRTTY6
 0230:6F81       WRTTY6A
 0230:6F97       WRTTY6B
 0230:6FBD       WRTTY7
 0230:6FC3       WRTTY8
 0230:6FD7       WRTTY9
 0230:703A       WRTTYX
 0230:705E       WRTTYY
 0CB0:1D07       XXX1
 0CB0:1BA9       ZLBL

  Address         Publics by Value

 0000:0000  Abs  I17_LPT
 0000:0000  Abs  IQL3_MAX
 0000:0001  Abs  DTSMALL
 0000:0001  Abs  I17_SPL
 0000:0002  Abs  DTHICAP
 0000:0002  Abs  I17_COM
 0000:0003  Abs  SHARERETRY
 0000:0003  Abs  SHARETICKS
 0000:0003  Abs  I17_REM
 0000:0004  Abs  DTCHGLN
 0000:0005  Abs  FALEN
 0000:0006  Abs  SCBHLDLEN
 0000:0007  Abs  IDLEN
 0000:0008  Abs  LOADBPB
 0000:000A  Abs  IQL1_MAX
 0000:000B  Abs  LBLSIZ
 0000:000C  Abs  IQL2_MAX
 0000:0010  Abs  BPBERR
 0000:0011  Abs  ERR_STAT
 0000:0012  Abs  REMTIM
 0000:0013  Abs  ENDTFN
 0000:0013  Abs  RESERVED
 0000:0014  Abs  MAXTRKTBL
 0000:0017  Abs  MKBSTATUS
 0000:0019  Abs  FMAX_FUNC
 0000:0019  Abs  MKBALTNM
 0000:0019  Abs  DBPB_SIZE
 0000:001A  Abs  MKBHEAD
 0000:001C  Abs  MKBTAIL
 0000:001E  Abs  MKBBUFF
 0000:0020  Abs  DIRTYBPB
 0000:0032  Abs  COMSETL
 0000:0040  Abs  SETPARMS
 0000:0040  Abs  DISKSWAP
 0000:0041  Abs  WRTTRACK
 0000:0042  Abs  FVTRACK
 0000:0046  Abs  SETMEDID
 0000:0060  Abs  GETPARMS
 0000:0061  Abs  RDTRACK
 0000:0062  Abs  VERTRACK
 0000:0066  Abs  GETMEDID
 0000:006E  Abs  POLLTIM
 0000:0078  Abs  INT1E
 0000:0080  Abs  FIRSTBPB
 0000:0090  Abs  OK_STAT
 0000:0096  Abs  MKBAUXST
 0000:00FF  Abs  INV_STAT
 0000:0240       FGSCBOFF
 0000:0240       SCBTCBPF
 0000:0242       SCBTCBPL
 0000:0244       SCBBDBPF
 0000:0246       SCBBDBPL
 0000:0248       SCBGFBPF
 0000:024A       SCBGFBPL
 0000:024C       SCBDBBPF
 0000:024E       SCBDBBPL
 0000:0250       SCBCNTXT
 0000:0252       SCBSLICE
 0000:0253       SCBTCBPC
 0000:0255       SCBTCBPV
 0000:0257       SCBTCBPS
 0000:0259       SCBTCBVR
 0000:025B       SCBIDQ2
 0000:025D       SCBIDQ3
 0000:025F       SCBIDQ4
 0000:0261       SCBIDQ5
 0000:0263       SCBIDQ6
 0000:0265       SCBIDQ7
 0000:0267       SCBVCUTY
 0000:0269       SCBVCUPO
 0000:026B       SCBAUXTM
 0000:026D       SCBCONSZ
 0000:026F       SCBVIDAD
 0000:0271       SCBTCBN
 0000:0273       SCBVERSN
 0000:0279       SCBI10OLD
 0000:027D       SCBLDRIVE
 0000:027E       SCB4013
 0000:0280       SCBDOSVER
 0000:0294       SCBNOI5
 0000:0295       SCBMMHAN
 0000:0297       SCBMMPTR
 0000:029B       SCBMMMOD
 0000:029F       SCBMMSUB
 0000:02A3       SCBMMFE2
 0000:02A4       SCBMMFEA
 0000:02A5       SCBMMGRN
 0000:02B1       SCBMMERR
 0000:02B3       SCBMM6AD
 0000:02B7       SCBMMSCB
 0000:02BB       SCBCON417
 0000:02BC       SCBIOPTR
 0000:02C0       SCBMMFG
 0000:02C1       SCBALTF1
 0000:02C2       SCBSPLTM
 0000:02C3       SCBLOWPR
 0000:02C4       SCBVMODE
 0000:02C5       SCBSWVQ
 0000:02C6       SCBSW87
 0000:02C7       SCBSWALI
 0000:02C8       SCBSWAF9
 0000:02C9       SCBINIRQ
 0000:02CA       SCBIN08
 0000:02CB       SCBHPADR
 0000:02CD       SCBHPSIZ
 0000:02CF       SCBBUFSZ
 0000:02D1       SCB13BUF
 0000:02D3       SCBSHELL
 0000:02DE  Abs  TCBPSPOFF
 0000:0323       SCBCNTRY
 0000:0325       SCBCURSZ
 0000:0327       SCBCURAD
 0000:0329       SCBAVSIZ
 0000:032B       SCBDRIVS
 0000:032C       SCBNOSWT
 0000:032E       SCBTSKFG
 0000:032F       SCBDRVR
 0000:0333       SCBSTDIN
 0000:0337       SCBSTDOUT
 0000:033B       SCBSTDNUL
 0000:033F       SCBSTDCLK
 0000:0343       SCBSTDPRN
 0000:0347       SCBSTDAUX
 0000:034B       SCBDBBLEN
 0000:034D       SCBDEBUG
 0000:034F       SCBDBPRT
 0000:0351       SCBVRWAIT
 0000:0353       SCBMASTV
 0000:0355       SCBKEY
 0000:0359       MOS1AD
 0000:035B       SCBMOSADR
 0000:035D       SCBUSRF
 0000:03AD       SCBHWCL
 0000:03BD       SCBDEMO
 0000:03BF       SCBDEMO2
 0000:03C1       SCBSDEMO
 0000:03C3       SCBINSAVE
 0000:03C4       SCBDRBSY
 0000:03C5       SCBI15TSL
 0000:03C6       SCB15POST
 0000:03C7       SCB15ACT
 0000:03C8       SCB13BSY
 0000:03C9       SCB13SK1
 0000:03CA       SCB13EOC
 0000:03CB       SCBFLONCE
 0000:03CC       SCBBDBBSY
 0000:03CD       SCBBSYTCB
 0000:03CF       SCBTFIX1
 0000:03D0       SCBTFIX2
 0000:03D1       SCBLASTW1
 0000:03D3       SCBLASTW2
 0000:03D5       SCBRDRIV
 0000:03D6       SCBIRQD0A
 0000:03D8       SCBIRQD0B
 0000:03DA       SCBIRQD0C
 0000:03DC       SCBIRQD0D
 0000:03DE       SCBIRQD0E
 0000:03E0       SCBIRQD0F
 0000:03E2       SCBINIT
 0000:03E3       SCBIRQBNK
 0000:03E7       SCBKBRATE
 0000:03E8       SCBOUT60
 0000:03E9       SCBIN60
 0000:03EA       SCBMCONLY
 0000:03EB       SCBI15OFF
 0000:03EC       SCBNORST
 0000:03ED       SCBSAVE
 0000:03F1       SCBRESTORE
 0000:03F5       SCBUPOLL
 0000:03F9       SCBPOST
 0000:03FB       SCBKBBIOS
 0000:0401       SCB15TCB
 0000:0403       SCB_COM_OWNER
 0040:0008  Abs  BIOSLPTS
 0000:040D  Abs  SCBLEN
 0000:0433       SCB_COM_TIMEOUT
 0040:006C  Abs  BIOSTICK
 0000:0493       SCBDRTCB
 0000:0495       SCBVDRFLG
 0000:0496       SCBDOPFLG
 0000:04AC       SCBSMSG
 0000:04BD       SCBFAR21
 0000:04C1       SCBCURCNT
 0000:04C5       SCBCURWRP
 0000:04C6       SCBSMPLOW
 0000:04C7       SCBHP2ADR
 0000:04C9       SCBHP2SIZ
 0000:04CB       SCBHLDSS
 0000:04CD       SCBBUFF
 0000:04E1       SCBMOSEND
 0000:04EE       SCBPRIPF
 0000:04F0       SCBCTXSZ
 0000:04F2       SCBSCANG
 0000:04F6       SCBCIN24
 0000:04FA       SCBTCBVS
 0000:04FC       SCBCPSEG
 0000:04FE       SCBVTYPE
 0000:04FF       SCBCPSIZ
 0000:0501       SCBFAR38
 0000:0505       SCBHPALC
 0000:0507       SCBVIDPG
 0000:0509       SCBMASTP
 0000:050B       SCBIRQPF
 0000:0517       SCBNOSLC
 0000:0518       SCBCRIT
 0000:0519       SCBINMOS
 0000:051B       SCBTIMER
 0000:051D       SCBBOOT
 0000:051F       SCBMSGSEG
 0000:0521       SCBTTRAP1
 0000:0522       SCBTTRAP2
 0000:0523       SCB286DEC
 0000:0524       SCBIDQP
 0000:0526       SCBVSAHDL
 0000:052A       SCBVSACNT
 0000:052E       SCBVMAHDL
 0000:0532       SCBVMACNT
 0000:0536       SCBVMASEG
 0000:0538       SCBMAPVMF
 0000:053C       SCBMAPVSF
 0000:0540       SCBHP1ALC
 0000:0542       SCBMUSER
 0000:0544       SCBVIDCHK
 0000:0548       SCBVMAAL
 0000:054A       SCBVSAAL
 0000:054C       SCBCUOB
 0000:054E       SCBCBK
 0000:0550       SCBCNUM
 0000:0552       SCBCK
 0000:0554       SCBCSYSK
 0000:0556       SCBCWRF
 0000:0558       SCBCWF
 0000:055A       SCBCWRL
 0000:055C       SCBCWL
 0000:055E       SCBCUPF
 0000:0560       SCBCHDL
 0000:0562       SCBCLST
 0000:0564       SCBCCUR
 0000:0566       SCBCELE
 0000:0568       SCBCMTR
 0000:0569       SCBCD
 0000:056D       SCBCACH
 0000:056E       SCBFLUSH
 0000:056F       SCBCSAVE
 0000:057F       SCBCNXT
 0000:0581       SCBCWSYS
 0000:0583       SCBCWMAX
 0000:0585       SCBCWNUM
 0000:0587       SCBCBITS
 0000:0589       SCBCBMSZ
 0000:058B       SCBCBMAP
 0000:058D       SCBCCLR
 0000:058F       SCBCBDB
 0000:0591       SCBCSEG
 0000:0593       SCBCSEGP
 0000:0595       SCBLASTFF
 0000:0597       SCBMO2END
 0000:0599       SCBDUMP
 0000:059D       SCBVNASYS
 0000:059E       SCBPKTIO
 0000:05A0       SCBCNTFLG
 0000:05A1       SCBINSWGP
 0000:05A2       SCBRSTCNT
 0000:05DC  Abs  STKSIZ
 0000:05E2       SCBBOOTDRV
 0000:05E3       SCBMOUTCB
 0000:05E5       SCBMOUSE
 0000:05E9       SCBMOUVAL
 0000:05F1       SCBRSTRTC
 0000:05F2       SCBRSTRTP
 0000:05F4       SCBCALL74
 0000:05F8       SCBBANKIN
 0000:05F9       SCBSLFACT
 0000:05FA       SCBSLCNT
 0000:05FB       SCBHOLD
 0000:05FB       SCBHLDTASK
 0000:05FD       SCBHLDTICK
 0000:05FF       SCBHLDTOCK
 0000:060D       SCBTIMERH
 0000:060F       SCBMOUSS
 0000:0611       SCBMOUSP
 0000:0613       SCBNOTSL
 0000:0614       SCBIN74
 0000:0615       SCBORG38
 0000:0619       SCBCLBX
 0000:061B       SCBCLCX
 0000:061D       SCBCLBDB
 0000:061F       SCBCLSCT
 0000:0623       SCBCLSEG
 0000:0625       SCBREG32
 0000:064E       DMA13AX
 0000:0650       DMA13BX
 0000:0652       DMA13CX
 0000:0654       DMA13DX
 0000:0656       DMA13ES
 0000:0658       MAXHEAD
 0000:0659       MAXSECT
 0000:065A       BPS
 0000:065C       P1
 0000:0660       P2
 0000:0664       P3
 0000:0668       PC
 0000:066C       B1
 0000:066E       B2
 0000:0670       B3
 0000:0672       MEDIA13
 0000:0676       OURBUF
 0000:0876       BPBPNTR
 0000:0910       FATARR
 0000:0915       BPBARR
 0000:0A7A       BADLAYOUT
 0000:0A7C       TRACKTABLE
 0000:0A80       SEC1SIZE
 0000:0ACE       FORMATTABLE
 0000:0B1E       HDR
 0000:0B22       DRVNUM
 0000:0B23       BIOSFUN
 0000:0B24       DIRCNT
 0000:0B26       MAXDRV
 0000:0B27       TYPRTR
 0000:0B28       SECTCNT
 0000:0B2A       SECTSTR
 0000:0B2C       GIOBUF
 0000:0B30       FGHEAD
 0000:0B31       FGTRACK
 0000:0B32       STARTD
 0000:0B33       T3100
 0000:0B34       DISKPRM
 0000:0B64       FTYPES
 0000:0B66       SECBUF
 0000:0B6A       LBLBUF
 0000:0B76       SWITCHMSG
 0000:0B9D       DRVN
 0000:0BBA       FFUNTBL
 0000:0D96       TRUEBOOT
 0000:0E8D  Abs  TCBLEN
 0000:0F46       VDRSKIP
 0000:0F47       VDRIRQ
 0000:0F48       INVIDRAM
 0000:0F4A       FORCEVSA
 0000:0F4B       PALOVR
 0000:0F4E       REQUEST
 0000:0F52       CGATBL
 0000:0F59       T3D5TBL
 0000:0F83       HERCTBL
 0000:0F91       MONOTBL
 0000:0F9F       MCSNOW
 0000:0FA0  Abs  LPTSETL
 0000:0FA0       MCBIO
 0000:0FBC       KBBF
 0000:0FDC       ENDKB
 0000:0FDC       KBGET
 0000:0FDE       KBPUT
 0000:0FE0       KBNOTMT
 0000:0FE1       IN09
 0000:0FE2       DDTMCTCB
 0000:0FE4       ENDCHN9
 0000:0FE5       CHAIN9
 0000:0FE6       INTSL
 0000:0FE7       LAGTCB
 0000:0FE9       PAMSKIP
 0000:1012       IRQWFLAG
 0000:1013       SKIPSWVS
 0000:1014       SKIPSWT
 0000:1015       TSL8STAT
 0000:1017       PS2MOUSE
 0000:102A       INITPSP
 0000:1200       FGTCBOFF
 0000:208E       IRQSTART
 0000:2090       OINT13
 0000:20A8       I15OLD
 0000:2144       I28OLD
 0000:2180       I10OLD
 0000:218C       I16OLD
 0000:2198       I17OLD
 0000:219C       I17SAV
 0000:219E       I17NEW
 0000:21A0       I17NEW2
 0000:21A4       I09OLD
 0000:2264       OINT74
 0000:2278       IRQEND
 0000:2278       POLLSTART
 0000:2282       SPTIMR
 0000:229C       POLLEND
 0229:000C       GEND
 0230:0000       MO2START
 0230:0000       SBIOS2
 0230:0002       GRPSEG2
 0230:020E       MOSFUN0F
 0230:022E       MOSFUN10
 0230:0251       MOSFUN11
 0230:0271       MOSFUN12
 0230:0323       MOSFUN13
 0230:03C9       MOSFUN14
 0230:03EC       MOSFUN15
 0230:040F       MOSFUN16
 0230:0504       MOSFUN17
 0230:06C0       MOSFUN1A
 0230:06CF       MOSFUN21
 0230:06F2       MOSFUN22
 0230:0715       MOSFUN23
 0230:0777       MOSFUN24
 0230:0798       MOSFUN27
 0230:07BB       MOSFUN28
 0230:07DE       MOSFUN2F
 0230:0E8C       NOSWT
 0230:0E98       OKSWT
 0230:0EDE       MOSFUN39
 0230:0FCC       MOSFUN3A
 0230:113B       MOSFUN3B
 0230:12A2       HL_CREATE
 0230:13A4       MOSFUN3C
 0230:13F1       HL_OPEN
 0230:1493       MOSFUN3D
 0230:14C4       MOSFUN3E
 0230:14E5       MOSFUN3F
 0230:1506       MOSFUN40
 0230:1549       MOSFUN41
 0230:15B5       MOSFUN42
 0230:1640       MOSFUN43
 0230:1713       MOSFUN45
 0230:1747       MOSFUN46
 0230:1796       MOSFUN47
 0230:1814       MOSFUN4E
 0230:1992       MOSFUN4F
 0230:1B56       MOSFUN56
 0230:1D1C       MOSFUN57
 0230:1DA3       MOSFUN58
 0230:1EF9       MOSFUN59
 0230:1F33       MOSFUN5A
 0230:2075       MOSFUN5B
 0230:2099       MOSFUN5C
 0230:21A4       MOSFUN65
 0230:21A4       MOSFUN66
 0230:21AE       MOSFUN67
 0230:2254       MOSFUN68
 0230:22B3       MOSFUN6C
 0230:244B       STTAX0
 0230:247C       MOSFUN44
 0230:2739       IO0D
 0230:289A       FINDTFB
 0230:28CF       MAKETFB
 0230:2987       CHKACC
 0230:2B0D       NULLPOLL9
 0230:2B0D       NULLPOLL8
 0230:2B38       CREATE
 0230:2BC6       EMPTYDIR
 0230:2C91       MAKELBL
 0230:2D07       FINDLBL
 0230:2D6B       DELETE
 0230:2DE7       GETFAT
 0230:2E40       PUTFAT
 0230:2F19       PATHFIND
 0230:31DB       FINDNM
 0230:3228       NEXTNM
 0230:33B5       DEVICENM
 0230:344B       FINDDRV
 0230:3454       FINDBDB
 0230:3583       ALLOCLUST
 0230:35FB       SETFREE
 0230:3612       DEALLOC
 0230:3659       CLRCLUST
 0230:36BC       FINDRLB
 0230:3740       CHKLOCK
 0230:377A       IOLOCK
 0230:3814       OKCHAR
 0230:387E       SLASH
 0230:3885       CAPSCMPS
 0230:389F       TIMESTAMP
 0230:38CE       MOSERROR
 0230:38EA       MOSMIMAN
 0230:391D       CALLCON
 0230:3E12       BUFFINP
 0230:46ED       CDEVINP
 0230:47A0       CDEVOUTP
 0230:48AC       READGUTS
 0230:49E7       WRITEGUTS
 0230:4CEE       TRUNCGUTS
 0230:4D6D       CREATGUTS
 0230:4DD9       CHECKEXON
 0230:4E82       ALLOWHIO
 0230:4EB9       DENYHIO
 0230:4EDA       CRTINT3
 0230:5130       FARCO
 0230:5135       GVRAM
 0230:526F       VF00
 0230:6005       CURSYNCH
 0230:614A       CONONLY
 0230:65D2       DDTCALL
 0230:6612       BIOSINT9
 0230:664E       BIO9A
 0230:6670       BIO9B
 0230:6680       STUB15
 0230:6681       I9HELPER
 0230:6687       LIDTINT09
 0230:66B0       MOSI9B1
 0230:66F2       MOSI9F
 0230:6702       MOSI9F2
 0230:6710       MOSI9F3
 0230:674B       NOSPECVID
 0230:6759       MOSI9D5
 0230:675F       MOSI9D1
 0230:676B       MOSI9D2
 0230:6775       MOSI9D
 0230:6794       MOSI9C
 0230:67A7       TFN
 0230:67CF       BANKIN
 0230:6807       MCTRM090
 0230:684C       MCTRM100
 0230:6850       MCTRM110
 0230:6859       MCTRM120
 0230:6867       MCTRM130
 0230:6870       MCTRM140
 0230:6871       MCTRM150
 0230:6877       MCTERM
 0230:687F       MCTRM020
 0230:68D0       MCTRM030
 0230:68D4       MCTRM040
 0230:68DF       MCTRM050
 0230:68F1       MCTRM060
 0230:68F6       MCTRM070
 0230:68FE       MCTRM080
 0230:693C       MCSKMAP
 0230:6942       MCTRM200
 0230:694A       MCTRM210
 0230:6957       MCTRM220
 0230:696A       MCTRM230
 0230:696B       PASSON
 0230:6981       PASS1
 0230:6995       PASS2
 0230:6998       PASS3
 0230:69A4       CALLINT
 0230:69B1       EXPOSREAL
 0230:69BA       REGISTER
 0230:69F5       DDTIN0
 0230:6A05       DDTIN1
 0230:6A22       REG0
 0230:6A58       REG1
 0230:6A5C       INKBDATA
 0230:6A79       KBDAT0
 0230:6A87       KBDAT1
 0230:6A88       UPDATELEDS
 0230:6AD0       DAT9A
 0230:6ADD       DATNOENH
 0230:6AF4       DAT9B
 0230:6B08       SKIPDAT
 0230:6B0A       OUTKBCTL
 0230:6B28       KBCTL1
 0230:6B30       KBCTL2
 0230:6B31       SETMODE
 0230:6B3D       SETXY
 0230:6B46       SETXX
 0230:6B78       SETM0A
 0230:6B83       SETM0B
 0230:6B90       SETM0C
 0230:6BA9       SETM1A
 0230:6BAB       SETM1B
 0230:6BD9       SETM2
 0230:6BF8       SETM2A
 0230:6C1B       SETM2LP
 0230:6C32       SETM3
 0230:6C54       SETM3A
 0230:6C61       SETM4
 0230:6C80       SETMONO
 0230:6C96       SETHERC
 0230:6CBA       SETH1
 0230:6CC0       SETHCARD
 0230:6CD6       SETHRC1
 0230:6CFA       CHKMODE
 0230:6D2C       CHKM2
 0230:6D2D       CHKHERC
 0230:6D41       CHKMH1
 0230:6D55       CHKMH2
 0230:6D5D       SAVBIO
 0230:6D7D       RSTBIO
 0230:6D9D       SETCRSTYP
 0230:6DC5       SETCT0
 0230:6DD1       SETCT1
 0230:6DE6       SETCRSPOS
 0230:6E05       SETCP1
 0230:6E25       SETCP2
 0230:6E26       SCROLLUP
 0230:6E3D       SCUP1
 0230:6E46       SCROLLDN
 0230:6E5D       SCDN1
 0230:6E66       WRCHATR
 0230:6E7F       WRCHA0
 0230:6E90       WRCHA1
 0230:6E9C       WRCHA2
 0230:6EA2       WRCHA3
 0230:6EB0       WRCHAX
 0230:6EB1       SETPALET
 0230:6EBD       SETP0
 0230:6EBE       SETP1A
 0230:6EE6       WRTTY
 0230:6F07       WRTBIO
 0230:6F0D       WRT0
 0230:6F2D       WRTTY0D
 0230:6F3A       WRTTY08
 0230:6F42       WRTTY08A
 0230:6F45       WRTTY2
 0230:6F57       WRTTY3
 0230:6F5D       WRTTY4
 0230:6F64       WRTTY5
 0230:6F73       WRTTY5A
 0230:6F78       WRTTY6
 0230:6F81       WRTTY6A
 0230:6F97       WRTTY6B
 0230:6FBD       WRTTY7
 0230:6FC3       WRTTY8
 0230:6FD7       WRTTY9
 0230:6FDB       WRTTY10
 0230:7003       WRTTY11
 0230:700E       WRTTY12
 0230:7038       WRTTY13
 0230:703A       WRTTYX
 0230:705E       WRTTYY
 0230:705F       WRSTR
 0230:7089       WRSTG0
 0230:70A6       WRSG1
 0230:70AE       WRSG2
 0230:70BB       WRSG3
 0230:70C3       WRSG4
 0230:70D0       WRSG5
 0230:70D1       WRST0
 0230:70E8       WRST1
 0230:70FE       WRST2
 0230:7103       WRST3
 0230:7109       WRST4
 0230:7115       WRSTX
 0230:7116       WRSHERC
 0230:712C       WRSH0A
 0230:716D       WRSH0
 0230:7194       WRSH1
 0230:719C       WRSH2
 0230:71AC       WRSH3
 0230:71B4       WRSH4
 0230:71C4       WRSH5
 0230:71CC       WRSH6
 0230:71DC       WRSH7
 0230:71E4       WRSH8
 0230:71F7       WRSH9
 0230:71F8       SETWINDOW
 0230:7210       SETWG1
 0230:7230       SETW0
 0230:723C       SETW1
 0230:7247       SETW2
 0230:7265       SETW3
 0230:7266       SETWHERC
 0230:728C       SETWHGC
 0230:7296       SETWHG1
 0230:72CF       SWHGC
 0230:72D2       SWHG1
 0230:72E8       WRCHO
 0230:72FF       WRCHO0A
 0230:730D       WRCHO0
 0230:7313       WRCHO1
 0230:731F       WRCHO2
 0230:7325       WRCHO3
 0230:7332       WRCHOX
 0230:7333       READCH
 0230:734C       RDCH0
 0230:735C       RDCH1
 0230:736A       RDCH2
 0230:7370       RDCH3
 0230:7378       GETSCR
 0230:7390       GETSG0
 0230:739B       GETSG1
 0230:73B1       GETS0
 0230:73BD       GETSC0
 0230:73C8       GETSC1
 0230:73E8       GETSC2
 0230:73E9       GETSHERC
 0230:7403       GETSHC1
 0230:742B       GETSHGC
 0230:7435       GETSH0
 0230:7442       GETSH1
 0230:746A       PRCH
 0230:746D       PRSTR
 0230:7470       PRINT_STAT
 0230:7473       MCSUPARG
 0230:7488       MCSUP1
 0230:7490       MCSUP2
 0230:74BF       MCSDNARG
 0230:74DA       MCSDN1
 0230:74E2       MCSDN2
 0230:7513       MCPOS
 0230:7526       MCPOS1
 0230:7537       MCSCRIT
 0230:754D       MCSA1
 0230:755A       MCSA2
 0230:755E       MCSA3
 0230:756A       MCSB
 0230:756E       MCSC
 0230:7578       MCSD
 0230:7589       MCSD0
 0230:758F       MCSD1
 0230:7592       CALLB50
 0230:75A7       VIDOFF
 0230:75B8       WORDMOV
 0230:75DC       MO1SEG
 0230:75DE       CALLER1
 0230:75FE       M2RETF
 0230:7601       CALLFUN1
 0230:7604       CLASSLVL
 0230:760C       CLASSBITS
 0230:763D       CPYCMAP
 0230:7652       EBLCMAP
 0230:766A       DEVREAD
 0230:76BA       DEVWRITE
 0230:7761       DEVCHK
 0230:77A9       MEDIACHK
 0230:798C       TODRIVER
 0230:7C07       TOINT24
 0230:7F51       BLKREAD
 0230:81A5       BLKWRITE
 0230:8429       GETCLUST
 0230:849F       ENCRYPT
 0230:84FA       DECRYPT
 0230:8555       RANDOM
 0230:8649       CHK_BDBGATE
 0230:8701       EXIT_BDBGATE
 0230:8736       RDFAT
 0230:87B0       RDDIR
 0230:87B8       RDDATA
 0230:888F       WRFAT
 0230:888F       WRSECTOR
 0230:8925       RDBF
 0230:8B06       WRBF
 0230:8E18       CHKLOGD
 0230:8F2C       FLUSH
 0230:8F58       FLUSHBDB
 0230:90E3       FLUSH24
 0230:928B       FLUSHDIR
 0230:92EB       FLUSHDATA
 0230:94E7       CHKBDB
 0230:9511       INVBDB
 0230:9D77       FREECACHE
 0230:9E5A       OPENFILE
 0230:9F54       UPD_DIR
 0230:9FBC       CLOSEFILE
 0230:A0A4       CLOSEALL
 0230:A0F6       EXCLUDE
 0230:A12A       FINDPHDL
 0230:A157       SETPHDL
 0230:A18B       GETPHDL
 0230:A1BF       GETTHDL
 0230:A202       FINDGFB
 0230:A2D9       MAKEGFB
 0230:A450       CKDEV0
 0230:A47D       MOSLIM0
 0230:A485       FAT16
 0230:A4A7       FAT12
 0230:A4C9       MARKDIRTY
 0230:A4F1       MARKCLEAN
 0230:A50E       CMAP
 0230:A589       CFREE
 0230:A645       CLEARBIT
 0230:A690       SETBIT
 0230:A6AB       TESTBIT
 0230:A6CA       BITADDR
 0230:A71D       FINDBDBC
 0230:A750       MO2END
 0CB0:0000       MOSSTART
 0CB0:1080       MO2FUN
 0CB0:1082       MO2SEG
 0CB0:1084       SCBFREE
 0CB0:1086       BOOTSEG
 0CB0:1088       SBIOS
 0CB0:108A       GRPSEG1
 0CB0:108C       INITCALL
 0CB0:108E       SINIT
 0CB0:1090       SINITADDR
 0CB0:10A5       BUGERROR
 0CB0:10EE       NOSWITCH
 0CB0:10FA       OKSWITCH
 0CB0:1390       BIOSSEG
 0CB0:1392       MOSINT13
 0CB0:13B5       INT13MSK
 0CB0:13C6       I13PASS
 0CB0:13CB       I13NOPASS
 0CB0:140C       I13SKIP8
 0CB0:1443       I13B1B
 0CB0:1449       I13B1A
 0CB0:1450       I13B1X
 0CB0:1495       I13B2A
 0CB0:14D1       I13B2C
 0CB0:14F8       I13B2B
 0CB0:1502       I13B2D
 0CB0:1509       I13B2W
 0CB0:150C       I13B2X
 0CB0:1518       I13B3A
 0CB0:153B       I13X
 0CB0:1550       CHK_BOUND
 0CB0:157F       CHB1
 0CB0:158F       CALC_PIECES
 0CB0:15BC       CPC1
 0CB0:15F5       SO2ABS
 0CB0:15F5       SOA1
 0CB0:15FD       SOA2
 0CB0:160A       ABN1
 0CB0:160A       ABS2NSO
 0CB0:1620       ABN4
 0CB0:162A       ABN3
 0CB0:1632       ABN7
 0CB0:163B       ABN5
 0CB0:163F       ABB1
 0CB0:163F       ABS2BSO
 0CB0:1658       ABB3
 0CB0:165B       ABB4
 0CB0:1660       DEL_DESC
 0CB0:1661       ADVANCE_SECT
 0CB0:168A       ADS1
 0CB0:16B9       BIO13
 0CB0:16CA       BIO13A
 0CB0:16EF       BIORET
 0CB0:16F0       ORIG13
 0CB0:174A       ORIG13A
 0CB0:174E       ORIG13X
 0CB0:174F       REGR13PRI
 0CB0:1764       REG13A
 0CB0:1773       REG13B
 0CB0:178B       REGRAB13_DATA
 0CB0:1795       REGRAB13A
 0CB0:17AE       REGRAB13
 0CB0:17E1       REGR13A
 0CB0:17F3       REGR13B
 0CB0:1819       REG13IRET
 0CB0:183D       REG13IRET2
 0CB0:185C       I13RG100
 0CB0:188B       CHK_13GATE
 0CB0:18B0       CHK13B
 0CB0:191F       CH13A
 0CB0:1928       I13POLL
 0CB0:1933       I13A
 0CB0:1934       SCBSTDBLK
 0CB0:1946       BLKSTRAT
 0CB0:1956       BLKINTR
 0CB0:199A       FREXIT
 0CB0:19A4       FERR1
 0CB0:19B0       ERR2
 0CB0:19BC       LOGTRANS
 0CB0:19C4       LOG10
 0CB0:19D7       LOG20
 0CB0:1A00       LOG30
 0CB0:1A01       PRTSTR
 0CB0:1A09       PRT10
 0CB0:1A14       PRT20
 0CB0:1A18       FMEDCK
 0CB0:1A59       MED05
 0CB0:1A70       MED06
 0CB0:1A73       MED10
 0CB0:1A7C       MED20
 0CB0:1A8B       MED30
 0CB0:1A97       MED32
 0CB0:1AA7       MED35
 0CB0:1AA9       MED40
 0CB0:1AB8       TIMESET
 0CB0:1AD0       TIMETEST
 0CB0:1AEE       TTOVER
 0CB0:1AF1       GETLABEL
 0CB0:1B00       GETL10
 0CB0:1B0B       GETL20
 0CB0:1B18       GETL30
 0CB0:1B1E       GETL40
 0CB0:1B20       GETL50
 0CB0:1B26       GETSEC
 0CB0:1B3B       GETS10
 0CB0:1B53       GETS20
 0CB0:1B54       GETS40
 0CB0:1B5A       SRCHSEC
 0CB0:1B6E       SRCH10
 0CB0:1B8E       SRCH20
 0CB0:1B9E       SRCH30
 0CB0:1BA1       SRCH40
 0CB0:1BA2       SRCH50
 0CB0:1BA9       ZLBL
 0CB0:1BB8       FBLDBPB
 0CB0:1BC9       BLD05
 0CB0:1BD7       BLD07
 0CB0:1BDA       BLD08
 0CB0:1BEE       SETTYPE
 0CB0:1C03       SET20
 0CB0:1C1F       SET30
 0CB0:1C4B       SET40
 0CB0:1C53       SET50
 0CB0:1C79       SET53
 0CB0:1C7E       SET55
 0CB0:1C8D       SET60
 0CB0:1C99       SET95
 0CB0:1C9A       SET100
 0CB0:1CA2       FINPUT
 0CB0:1CA7       OUTENTRY
 0CB0:1CCC       IOCONT
 0CB0:1CCF       DISK_IO
 0CB0:1CEE       IOPART
 0CB0:1D07       XXX1
 0CB0:1D0A       IOOK
 0CB0:1D20       ENDIO
 0CB0:1D2C       DSKERRTBL
 0CB0:1D4B       FDSKERR
 0CB0:1D4F       DISKERR
 0CB0:1D64       ERR3
 0CB0:1D89       ERR4
 0CB0:1D8B       CALCABS
 0CB0:1DA5       FOUTPUT
 0CB0:1DAD       FDEVOPEN
 0CB0:1DBB       FDEVCLOSE
 0CB0:1DC6       FREMOVE
 0CB0:1DD1       FGENIOCTL
 0CB0:1E0C       FGEN10
 0CB0:1E0F       FGEN20
 0CB0:1E12       FGEN30
 0CB0:1E18       FGEN40
 0CB0:1E1E       FGEN50
 0CB0:1E24       FGEN60
 0CB0:1E2A       FGEN70
 0CB0:1E2D       FGEN80
 0CB0:1E30       FGSETPARMS
 0CB0:1E52       FGSET05
 0CB0:1E74       FGSET10
 0CB0:1E86       FGSET20
 0CB0:1E87       FGSET30
 0CB0:1E8A       FGSET40
 0CB0:1E93       FGSET50
 0CB0:1E9A       MAKEFTBL
 0CB0:1EB7       MKFT10
 0CB0:1EDF       MKFT20
 0CB0:1EE9       MKFT30
 0CB0:1EEF       MKFT40
 0CB0:1EF6       FGGETPARMS
 0CB0:1F14       FGGET10
 0CB0:1F19       FGGET20
 0CB0:1F1C       FGGET22
 0CB0:1F46       FGGET25
 0CB0:1F4C       FGGET27
 0CB0:1F52       FGGET30
 0CB0:1F62       FGGET40
 0CB0:1F6C       FGGET41
 0CB0:1F7B       FGGET50
 0CB0:1F91       FGGET55
 0CB0:1FA3       FGWRTTRACK
 0CB0:1FBE       G_RVENTRY
 0CB0:1FCF       FGWR10
 0CB0:1FDC       FGWR20
 0CB0:1FE2       G_FMTENTRY
 0CB0:1FED       FGWR30
 0CB0:200A       FGWRER35
 0CB0:202E       G_DISKIO
 0CB0:204A       G_IO_ERR
 0CB0:204D       G_IOOK
 0CB0:2053       G_IOEX
 0CB0:205D       FGWRER1
 0CB0:2062       FGWRER2
 0CB0:2063       FGWRER3
 0CB0:2068       FGRDTRACK
 0CB0:2086       FGFVTRACK
 0CB0:209F       FGFV10
 0CB0:20AD       FGFV11
 0CB0:20B7       FGFV525
 0CB0:20DE       FGFV350
 0CB0:20F5       FGFVDASD
 0CB0:20FE       FGFVMEDIA
 0CB0:211E       FGFVPARM
 0CB0:2162       FGFVXIT
 0CB0:2171       SETFTBL
 0CB0:2180       STFT10
 0CB0:2186       STFT20
 0CB0:218A       FGVERTRACK
 0CB0:21A2       FGVE10
 0CB0:21AD       FGVE20
 0CB0:21BA       FSETMEDID
 0CB0:221F       SETS10
 0CB0:2239       SETS40
 0CB0:2245       STMX
 0CB0:2254       STMZ
 0CB0:225D       FGETMEDID
 0CB0:22B7       GTMX
 0CB0:22C6       GTMZ
 0CB0:22CE       FGETLOG
 0CB0:22E7       FSETLOG
 0CB0:2304       FIOQUERY
 0CB0:2348       FIQX
 0CB0:234E       FIQZ
 0CB0:234F       FINITBLK
 0CB0:234F       FENDRES
 0CB0:238C       FINI10
 0CB0:23BE       ISDRIVE
 0CB0:23E9       ISDT3100
 0CB0:23F3       ISDCMOS
 0CB0:2404       ISDFTYP
 0CB0:2414       ISDRIVES
 0CB0:2423       ISDLOOP
 0CB0:2437       ISD104
 0CB0:2441       ISD103
 0CB0:2455       ISD102
 0CB0:245F       ISD101
 0CB0:2467       ISDSET
 0CB0:2477       ISDMERG
 0CB0:2490       ISDMHDS
 0CB0:249C       ISDBPB
 0CB0:24B8       ISD40
 0CB0:24C6       ISDXIT
 0CB0:24C8       MAXPARM
 0CB0:24D0       MAXPARMX
 0CB0:24D2       SCBSTDHD
 0CB0:3052       MOSSTDPRN
 0CB0:3052       MOSSTDAUX
 0CB0:3052       MOSSTDIN
 0CB0:3052       $$$LIMAN
 0CB0:3052       MOSSTDOUT
 0CB0:3052       MOSSTDNUL
 0CB0:3065       MOSLIMAN
 0000:FFF0  Abs  DEMOOUT
 0000:FFFF  Abs  I17_NUL
 0CB0:36EE       MOSHEMAN
 0CB0:3A95       CHKHEAP
 0CB0:3B24       MOSDDINT
 0CB0:3ED5       SETBDB
 0CB0:40D0       MOSINT15
 0CB0:40D9       M15P1
 0CB0:4101       M15P4
 0CB0:410C       M15P6
 0CB0:4112       M15P2
 0CB0:411C       M15P1B
 0CB0:4125       M15P7
 0CB0:412F       M15P7A
 0CB0:4142       M15P9
 0CB0:4172       M15P3
 0CB0:417F       M15P5
 0CB0:4182       I15SUSPEND
 0CB0:419E       M15P12B
 0CB0:41B2       M15P11A
 0CB0:41B5       M15P12A
 0CB0:41CA       M15P12
 0CB0:421B       M15P13A
 0CB0:4258       M15P13B
 0CB0:428A       M15P11
 0CB0:428F       I15POLL
 0CB0:42A2       M15P18A
 0CB0:42B8       M15P18
 0CB0:42BE       SCBSTDCON
 0CB0:43A9       IN28LOOP
 0CB0:4417       KEYTRANS
 0CB0:44DE       OUTANSI
 0CB0:4555       FINSTR
 0CB0:466E       GETCRSX
 0CB0:46C7       DOESC
 0CB0:4AE3       ESKEYR
 0CB0:4C08       CALLER2
 0CB0:4C28       M1RETF
 0CB0:4DDF       MOSOLDFN
 0CB0:4DF7       MOSINT23
 0CB0:4DF8       MOSINT24
 0CB0:4DFB       MOSINT25
 0CB0:4E53       MOSINT26
 0CB0:4F55       MOSINT27
 0CB0:4F7D       MOSINT20
 0CB0:4F82       MOSINT21
 0CB0:5120       MOSFUN00
 0CB0:5133       FUN00A
 0CB0:527D       MOSFUN0D
 0CB0:52DD       MOSFUN0E
 0CB0:532C       MOSFUN19
 0CB0:5334       MOSFUN1B
 0CB0:536F       MOSFUN1C
 0CB0:537A       MOSFUN1F
 0CB0:5385       MOSFUN25
 0CB0:53C3       MOSFUN26
 0CB0:5421       MOSFUN29
 0CB0:5592       MOSFUN2A
 0CB0:559F       MAXDAYS
 0CB0:55AB       MOSFUN2B
 0CB0:56C6       MOSFUN2C
 0CB0:56D0       MOSFUN2D
 0CB0:5734       MOSFUN2E
 0CB0:573C       MOSFUN30
 0CB0:5775       MOSFUNXX
 0CB0:5776       MOSFUN31
 0CB0:57D8       MOSFUN32
 0CB0:580B       MOSFUN33
 0CB0:584E       MOSFUN35
 0CB0:5870       MOSFUN36
 0CB0:596D       MOSFUN37
 0CB0:5988       MOSFUN38
 0CB0:5A31       MOSFUN48
 0CB0:5B2A       MOSFUN49
 0CB0:5B63       MOSFUN4A
 0CB0:5D1A       MOSFUN4B
 0CB0:66B5       MOSFUN4C
 0CB0:66C6       MOSFUN4D
 0CB0:66D2       MOSFUN54
 0CB0:66DA       SIM21
 0CB0:6729       EXECOPEN
 0CB0:6770       WRITDEV
 0CB0:6786       MOSFUN01
 0CB0:67D5       MOSFUN02
 0CB0:680D       MOSFUN03
 0CB0:6835       MOSFUN04
 0CB0:685D       MOSFUN05
 0CB0:6885       MOSFUN06
 0CB0:6953       MOSFUN07
 0CB0:698B       MOSFUN08
 0CB0:69C3       MOSFUN09
 0CB0:6A09       MOSFUN0A
 0CB0:6AE2       MOSFUN0B
 0CB0:6B40       MOSFUN0C
 0CB0:6B9B       TERMINATE
 0CB0:6C6C       MOSFUN1E
 0CB0:6C6C       MOSFUN61
 0CB0:6C6C       MOSFUN20
 0CB0:6C6C       MOSFUN18
 0CB0:6C6C       MOSFUN1D
 0CB0:6C71       MOSFUN52
 0CB0:6C85       GET_TRUE_CLUSTERS
 0CB0:6CB5       MOSFUN53
 0CB0:6D6C       MOSFUN55
 0CB0:6DBC       MOSFUN5D
 0CB0:6DDE       MOSFUN5E
 0CB0:6E35       MOSFUN5F
 0CB0:6E45       MOSFUN60
 0CB0:6E61       MOSFUN63
 0CB0:6E9B       CAPS
 0CB0:6EBE       GETDATE
 0CB0:6F8B       GETTIME
 0CB0:6FD8       MOSSAVER
 0CB0:6FD8       $$$SAVER
 0CB0:6FFB       MOSSV1
 0CB0:7022       KEEPTPFRM
 0CB0:7027       PATDEMO2
 0CB0:7065       GOTYOU
 0CB0:7089       MOSBYE
 0CB0:708C       NOTYET
 0CB0:708D       SKIPCHK
 0CB0:70C1       SHORTSAVR
 0CB0:70E4       CALLKEYS
 0CB0:70ED       NOTSLA
 0CB0:70EE       MOSRESTORE
 0CB0:7130       IQLIST1
 0CB0:7160       IQLIST2
 0CB0:7198       IQLIST3
 0CB0:71A0       CHKIRQ
 0CB0:71D5       CHKQ1A
 0CB0:71E8       CHQ16
 0CB0:7205       CHQ1
 0CB0:720F       CHQ2
 0CB0:7220       CHQ6
 0CB0:7243       CHQ6A
 0CB0:7275       CHQ13
 0CB0:7286       CHQ14
 0CB0:728A       CHQ15
 0CB0:729B       CHQ5
 0CB0:72AF       CHQ8
 0CB0:72DA       CHQ9
 0CB0:72EA       CHQ10
 0CB0:72EE       CHQ12
 0CB0:72FD       CHQ7
 0CB0:72FE       CHQ4
 0CB0:7310       CHQ3
 0CB0:7329       CHQ11
 0CB0:7335       CMP_DWORD
 0CB0:733B       CDW1
 0CB0:733C       CHECK_FIX
 0CB0:7340       CHF1
 0CB0:736A       CHF3
 0CB0:738E       CHF4
 0CB0:739B       CHF2
 0CB0:739C       DOPOLL
 0CB0:73B6       DOPOLL1
 0CB0:73C9       DOPOLL2
 0CB0:73EE       DOPOLL2A
 0CB0:73F9       DOPOLL3
 0CB0:7402       DOPOLL4
 0CB0:740A       $$$MOS28
 0CB0:740A       MOSINT28
 0CB0:7471       TESTMOS28
 0CB0:7491       SAFE28
 0CB0:7529       MOSFUN34
 0CB0:7539       DECINMOS
 0CB0:7551       INCINMOS
 0CB0:7562       RSTINMOS
 0CB0:7590       HEX2ASC
 0CB0:75C2       $$$INT38
 0CB0:763C       MOSINT38
 0CB0:76C2       MOSEXT00
 0CB0:76FC       MOSEXT02
 0CB0:770F       MOSEXT03
 0CB0:7803       MOSEXT04
 0CB0:7816       MOSEXT05
 0CB0:784C       MOSEXT06
 0CB0:784D       MOSEXT07
 0CB0:7AC5       MOSEXT08
 0CB0:7BDE       MOSEXT09
 0CB0:7C3E       MOSEXT0A
 0CB0:7C62       MOSEXT0B
 0CB0:7E15       MOSEXT0C
 0CB0:8053       MOSEXT0D
 0CB0:870B       MOSEXT22
 0CB0:871D       START_TASK
 0CB0:88C3       MOSEXT23
 0CB0:8C1A       SAVTABLE
 0CB0:8C86       SAVCNTXT
 0CB0:8D8C       RSTCNTXT
 0CB0:8F0A       SWCNTXT
 0CB0:8F24       SWTASKRAM
 0CB0:8F75       MAPVMF
 0CB0:8F80       MAPVSF
 0CB0:8F8B       MAPVMA
 0CB0:903F       MAPVSA
 0CB0:909C       SWREALRAM
 0CB0:90BA       SWVIDRAM
 0CB0:9141       SWVIDSAVE
 0CB0:9197       SKIPSW
 0CB0:9198       SWITCHIF
 0CB0:91A8       SWITCHTASK
 0CB0:91C9       SWITCHGP
 0CB0:9244       MOSSTDCLK
 0CB0:947E       $$$RTASK
 0CB0:947E       MOSRTASK
 0CB0:9496       MSRT5
 0CB0:94AE       MSRT10
 0CB0:94BD       MSRT12
 0CB0:94C6       MSRT13
 0CB0:94CC       MSRT14
 0CB0:94E0       MSRT14A
 0CB0:94E6       MSRT14B
 0CB0:94EA       MSRT15
 0CB0:94F5       MSRT17
 0CB0:9502       MSRT20
 0CB0:951A       MSRT30
 0CB0:952C       MSRT31
 0CB0:952E       MSRT32
 0CB0:9543       MSRT33
 0CB0:956B       MSRT33A
 0CB0:9571       MSRT34
 0CB0:958F       MSRT35
 0CB0:9593       MSRT36
 0CB0:95A0       FIXIRQWFG
 0CB0:95B2       MSRT40
 0CB0:95C0       M40A
 0CB0:95D2       M40E
 0CB0:95DC       M40F
 0CB0:95F4       M40D
 0CB0:95FE       M40B
 0CB0:9606       M40C
 0CB0:961A       M40G
 0CB0:962C       MSRT50
 0CB0:9652       MSRT60
 0CB0:966C       MSRT80
 0CB0:967E       MSRT81
 0CB0:968E       SHNO24
 0CB0:96A0       SHNOWAIT
 0CB0:96B9       MSRT85
 0CB0:96CF       MSRT90
 0CB0:96F0       MSRT100
 0CB0:9700       MSRT110
 0CB0:9721       MSRT120
 0CB0:972B       MSRT130A
 0CB0:9738       MSRT135A
 0CB0:9754       MSRT130B
 0CB0:9764       MSRT130C
 0CB0:976D       MSRT130D
 0CB0:979C       MSRT130
 0CB0:97BA       MSRT145
 0CB0:97C5       MSRT150
 0CB0:97CC       MSRT151
 0CB0:97E1       MSRT152
 0CB0:97F0       MSRT140
 0CB0:97F4       MSRT200
 0CB0:9813       MSRT300
 0CB0:9818       MSRT400
 0CB0:981B       MSRT500
 0CB0:9823       MSRTERR
 0CB0:9866       MOSID
 0CB0:986D       RLSNETBIOS
 0CB0:98BB       RNBX
 0CB0:98C3       CLOSETASK
 0CB0:98DB       CLST10
 0CB0:9906       CLST15
 0CB0:9929       CLST20
 0CB0:9946       CLST30
 0CB0:996B       CLST40
 0CB0:9973       CLSTX
 0CB0:9977       REMALIAS
 0CB0:9988       REMAL1
 0CB0:99BC       REMAL2
 0CB0:99D9       REMAL3
 0CB0:99EB       REMAL4
 0CB0:99F2       REMPOLL00
 0CB0:9A16       REMP10
 0CB0:9A16       REMP20
 0CB0:9A1C       SCBCOM24
 0CB0:9C14       SCBLPT1
 0CB0:9C26       SCBNUL
 0CB0:9C38       DEVSTRAT
 0CB0:9C43       LP1INTR
 0CB0:9C4C       LP2INTR
 0CB0:9C55       LP3INTR
 0CB0:9C5E       COM1INTR
 0CB0:9C67       COM2INTR
 0CB0:9C70       COM3INTR
 0CB0:9C79       COM4INTR
 0CB0:9C82       COM5INTR
 0CB0:9C8B       COM6INTR
 0CB0:9C94       COM7INTR
 0CB0:9C9D       COM8INTR
 0CB0:9CA6       COM9INTR
 0CB0:9CAE       COM10INTR
 0CB0:9CB6       COM11INTR
 0CB0:9CBE       COM12INTR
 0CB0:9CC6       COM13INTR
 0CB0:9CCE       COM14INTR
 0CB0:9CD6       COM15INTR
 0CB0:9CDE       COM16INTR
 0CB0:9CE6       COM17INTR
 0CB0:9CEE       COM18INTR
 0CB0:9CF6       COM19INTR
 0CB0:9CFE       COM20INTR
 0CB0:9D06       COM21INTR
 0CB0:9D0E       COM22INTR
 0CB0:9D16       COM23INTR
 0CB0:9D1E       COM24INTR
 0CB0:9D26       NULINTR
 0CB0:9D2C       DEVSINTRX
 0CB0:9D30       FUNTBL
 0CB0:9D4A       DEVSINTR
 0CB0:9D6D       REXIT
 0CB0:9D76       ERR1
 0CB0:9D83       DEVSTUB
 0CB0:9D8F       DEVERR
 0CB0:9D9B       INPUT
 0CB0:9DAB       DONUL
 0CB0:9DB7       DOCOM
 0CB0:9DD6       IN1A
 0CB0:9DEF       IN1B
 0CB0:9DFA       IN1C
 0CB0:9E02       OUT17
 0CB0:9E1C       TSR17
 0CB0:9E27       TSR17LP
 0CB0:9E38       TSR17END
 0CB0:9E3D       MOS17
 0CB0:9E43       OUTPUT
 0CB0:9E57       NOTNUL
 0CB0:9E66       SETCOMDX
 0CB0:9E69       DXSET
 0CB0:9E95       OT1F
 0CB0:9E9F       OTELOOP
 0CB0:9EB1       OTEOK
 0CB0:9EB5       LOOPEND
 0CB0:9EC3       OT1B
 0CB0:9ECF       OUTEND
 0CB0:9ED7       ENDRES
 0CB0:9ED7       VINIT
 0CB0:9EEA       VINIT1
 0CB0:9EF1       VINIT3
 0CB0:9FB7       INITIOPTBL
 0CB0:A03A       ISEGA
 0CB0:A049       EGAON
 0CB0:A058       EGAOFF
 0CB0:A062       SET_TRAP
 0CB0:A0BF       MOSINT06
 0CB0:A86F       MOSINT10
 0CB0:A988       VIDRAM
 0CB0:A998       VIDRAM1A
 0CB0:A9A7       NOSBUF
 0CB0:A9B2       DDTCALLF
 0CB0:A9B8       CSYNCH
 0CB0:AA0E       MOSINT16
 0CB0:AC67       KBPOLL00
 0CB0:AC97       KBPOLL01
 0CB0:ACC7       GETKEYS
 0CB0:B0AD       DECODESCAN
 0CB0:B2F0       SCANGUTS
 0CB0:B78C       CTRLTBL
 0CB0:B88C       ALTTBL
 0CB0:C27C       SET_KBRATE
 0CB0:C2B6       I10FUN10
 0CB0:C2F8       SETEGAPAL
 0CB0:C6A0       I17PRTBIT
 0CB0:C6A3       I17FUNCS
 0CB0:C6AD       PRTCVECT
 0CB0:C6B5       PRTSVECT
 0CB0:C6BD       INITVECT
 0CB0:C6C5       STATVECT
 0CB0:C6CD       WORDTEN
 0CB0:C6CF       SPLMSG1
 0CB0:C6E4       MOSINT17
 0CB0:C730       I17_INVALID
 0CB0:C732       I17_EXIT
 0CB0:C739       I17PRINT
 0CB0:C740       I17INIT
 0CB0:C747       I17STAT
 0CB0:C74E       I17PRTSTR
 0CB0:C76B       I17SXIT
 0CB0:C76F       DETERMINE_ROUTE
 0CB0:C789       PTRSPLSG
 0CB0:C7AC       PTRSPLNXT
 0CB0:C7B7       PTRNOSPL
 0CB0:C7D5       PTR_LPT
 0CB0:C7EC       PTRINVLD
 0CB0:C7F1       PTRXIT
 0CB0:C7F2       I17LPT
 0CB0:C7FC       I17LPTS
 0CB0:C802       I17LLUP
 0CB0:C808       I17LCHAR
 0CB0:C80C       I17LTEST
 0CB0:C818       I17LBUSY
 0CB0:C827       I17LERR
 0CB0:C828       I17LPRT
 0CB0:C841       INITLPT
 0CB0:C85F       INITHLD
 0CB0:C860       STATLPT
 0CB0:C868       STATLHLD
 0CB0:C869       LPTBUSY
 0CB0:C875       LPTSTATUS
 0CB0:C881       RESERVE_LPT_PORT
 0CB0:C8C3       LPT_HOLD_1
 0CB0:C8EC       LPT_HOLD_2
 0CB0:C8FE       RLP_OK
 0CB0:C907       RLP_EXIT
 0CB0:C90D       I17WAIT
 0CB0:C915       I17W_LOOP
 0CB0:C952       I17W_CONT
 0CB0:C959       I17W_OK
 0CB0:C95D       POLLLPT
 0CB0:C967       POLLTIME
 0CB0:C97E       POLLDONE
 0CB0:C987       POLLCONT
 0CB0:C98A       INFRETRY
 0CB0:C997       INFRETRYCONT
 0CB0:C9A9       IRETRYOUT
 0CB0:C9AC       I17SPL
 0CB0:C9C0       SPLFINI
 0CB0:C9D1       SPLXIT
 0CB0:C9D2       I17SPLS
 0CB0:C9F4       SPLSLUP
 0CB0:CA08       SPLSMOV
 0CB0:CA1D       SPLOPEN
 0CB0:CA41       SPLONAME
 0CB0:CA4D       SPLONLP
 0CB0:CA6D       SPLUNSEC
 0CB0:CAA3       SPLX
 0CB0:CAA6       SPLZ
 0CB0:CAA8       SPLWRITE
 0CB0:CACF       SPLWXIT
 0CB0:CAD3       SPLWX
 0CB0:CAD9       SPLWZ
 0CB0:CADA       SPLERR
 0CB0:CB07       SPLERRB
 0CB0:CB0B       SPLERRA
 0CB0:CB0D       SPLTIMER
 0CB0:CB22       SPLTIMOUT
 0CB0:CB3E       SPLTMLUP
 0CB0:CB55       SPLTMNXT
 0CB0:CB6D       SPLTMSTO
 0CB0:CB72       SPLTMXIT
 0CB0:CB75       CLOSSPLS
 0CB0:CB87       CLOSPLUP
 0CB0:CB99       CLOSPXIT
 0CB0:CB9A       I17CLOSE
 0CB0:CBAA       I17CLSXIT
 0CB0:CBAB       SPLCLOSE
 0CB0:CBE5       SCLSXIT
 0CB0:CBE6       CLOSPOLL
 0CB0:CC0A       CLSPSKP1
 0CB0:CC0F       CLSPLOOP
 0CB0:CC2E       CLSPNEXT
 0CB0:CC38       CLSPXIT
 0CB0:CC3B       CLSPSKP2
 0CB0:CC3C       CLSPRET
 0CB0:CC3D       INITSPL
 0CB0:CC40       STATSPL
 0CB0:CC43       GSPSP
 0CB0:CC6A       DO21H
 0CB0:CC83       I17COM
 0CB0:CC8B       I17COM_LP
 0CB0:CCA3       I17COM_OK
 0CB0:CCA6       I17COM_EXIT
 0CB0:CCA7       I17COMS
 0CB0:CCAF       I17_CS1
 0CB0:CCB4       I17_CS2
 0CB0:CCCF       I17_CSOK
 0CB0:CCD5       I17_CS_EXIT
 0CB0:CCD6       INITCOM
 0CB0:CCDA       STATCOM
 0CB0:CCE2       STATCOM_EXIT
 0CB0:CCE3       COMSTATUS
 0CB0:CCF0       COMSTXIT
 0CB0:CCF1       RESERVE_COM_PORT
 0CB0:CD38       RCP_OK
 0CB0:CD5E       RCP_RES
 0CB0:CD89       RCP_DONE
 0CB0:CD92       RCP_EXIT
 0CB0:CD98       I17REMST
 0CB0:CDA0       I17RC4
 0CB0:CDCC       I17RC3
 0CB0:CDD9       I17RC5
 0CB0:CDDC       I17RC6
 0CB0:CDF1       I17RC1
 0CB0:CDFB       I17RC2
 0CB0:CDFE       I17RC8
 0CB0:CE04       I17RC7
 0CB0:CE08       I17REMC
 0CB0:CE18       I17RM0
 0CB0:CE2A       I17RM2
 0CB0:CE4F       I17RM1
 0CB0:CE67       I17RM3
 0CB0:CE6C       I17REMS
 0CB0:CE70       I17RS1
 0CB0:CE80       INITREM
 0CB0:CE83       STATREM
 0CB0:CE88       REGRAB9_DATA
 0CB0:CE92       REGRAB9A
 0CB0:CEAB       REGRAB09
 0CB0:CEE9       RE9A
 0CB0:CEEE       MOSINT09
 0CB0:CF02       LIDTSTUB9
 0CB0:CF2A       CLEARIO
 0CB0:CF2F       LL1
 0CB0:CF3E       $$$NXTSK
 0CB0:CF60       GRAB_BACK
 0CB0:D013       BIAS_STACK
 0CB0:D154       CHKSLICE
 0CB0:D1A4       LIDTSTUB8
 0CB0:D1A8       LIDTINT08
 0CB0:D24C       REGRAB8_DATA
 0CB0:D343       PATDEMO1
 0CB0:D380       MOSDEMO1
 0CB0:D386       MOSDEMO
 0CB0:D527       TIMPARM
 0CB0:D549       TIMCHK
 0CB0:D763       REORDLST
 0CB0:D88D       USERPOLL
 0CB0:D8E4       DOPOST
 0CB0:DA48       SUSPEND2
 0CB0:DA6A       SUSPEND
 0CB0:DB00       TSL
 0CB0:DD88       LAUNCH_POINT
 0CB0:DDB3       MOSINT70
 0CB0:DDBE       MOS2ND70
 0CB0:DDC9       MOSINT71
 0CB0:DDD4       MOS2ND71
 0CB0:DDDF       MOSINT72
 0CB0:DDEA       MOS2ND72
 0CB0:DDF5       MOSINT73
 0CB0:DE00       MOS2ND73
 0CB0:DE0B       MOSINT75
 0CB0:DE16       MOS2ND75
 0CB0:DE21       MOSINT76
 0CB0:DE2C       MOS2ND76
 0CB0:DE37       MOSINT77
 0CB0:DE42       MOS2ND77
 0CB0:DE4D       MOSINTXX
 0CB0:DE66       MOS2NDXX
 0CB0:DE87       LIDT0A
 0CB0:DE8C       REGRSEC0A
 0CB0:DEA2       LIDT0B
 0CB0:DEA7       REGRSEC0B
 0CB0:DEBD       LIDT0C
 0CB0:DEC2       REGRSEC0C
 0CB0:DED8       LIDT0D
 0CB0:DEDD       REGRSEC0D
 0CB0:DEF3       LIDT0E
 0CB0:DEF8       REGRSEC0E
 0CB0:DF0E       LIDT0F
 0CB0:DF13       REGRSEC0F
 0CB0:DF21       LIDTST_AF
 0CB0:DF34       IRQBANK
 0CB0:E0B8       SWCALL
 0CB0:E2BA       WORDMOVE
 0CB0:E38E       LIDTSTUB74
 0CB0:E38F       LIDTINT74
 0CB0:E3BE       LIDTMICE
 0CB0:E3D8       LIDTSKMICE
 0CB0:E3D9       LIDTORG74
 0CB0:E3E6       MOSINT74
 0CB0:E40E       M74DONE
 0CB0:E418       MOS2ND74
 0CB0:E44B       JMPOLD74
 0CB0:E452       JMP2ND74
 0CB0:E456       MOUCALL
 0CB0:E4B2       MCSKIP
 0CB0:E4B7       PS2CALL
 0CB0:E548       MMRET
 0CB0:E549       MOSITASK
 0CB0:F066       INIDVARS
 0CB0:F1E5       INITMCB
 0CB0:F20A       INITSTATION
 0CB0:F377       CALCLIM
 0CB0:F3E4       SET_CONLY
 0CB0:F598       OG4013
 0CB0:F59A       DD4013
 0CB0:F59C       SMTHERE
 0CB0:F59D       MMDEVICE
 0CB0:F5D2       CNFSEG
 0CB0:F5D6       TMPHEAP
 0CB0:F5D8       TMPHPSIZ
 0CB0:F5DA       MOSADDR
 0CB0:F5DE       MMSEGMT
 0CB0:F5E0       MMLSEG
 0CB0:F5E3       CURMODE
 0CB0:F5E5       DMLIST
 0CB0:F5E7       DMPATCH
 0CB0:F5FD       DMBUFFR
 0CB0:F61A       CPRES
 0CB0:F627       DMFLAGS
 0CB0:F628       DTIMEOUT
 0CB0:F65A       GSEGLEN
 0CB0:F65A       CLOBBER
 0CB0:F6A7       MOSINIT
 0CB0:F82E       BUGSHELL
 0CB0:F839       BUGOPEN
 0CB0:F855       UPDFREE
 0CB0:F903       LDMMDEV
 0CB0:FD73       INITP7
 0CB0:FD86       HPERR
 0CB0:FDE6       SMPERR
 0CB0:FE1C       DRVERR
 0CB0:FE6A       MINTERR
 0CB0:FE95       DISPMOS
 0CB0:FEA1       CLEARSM
 0CB0:FEB8       MOSCALL
 0CB0:FEBE       IFAR21
 0CB0:FEC6       MOSEND
 1C9D:0000       INITSTART
 1C9D:0000       MSCALL
 1C9D:0002       INITMOS
 1C9D:0004       INITMO2
 1C9D:0006       INITGRP
 1C9D:0008       IMOSADDR
 1C9D:0DEE       PROCNFG
 1C9D:14CE       GETMPSW
 1C9D:15E3       INITP2
 1C9D:1654       OPENDEV
 1C9D:16E4       TEMPCACHE
 1C9D:1733       INITCACHE
 1C9D:18FC       INCALL
 1C9D:1A26       INITPA
 1C9D:1B6E       INITPB
 1C9D:1DA9       INITPC
 1C9D:2524       EXIT13
 1C9D:2770       SETDINT
 1C9D:27A3       CHKDINT
 1C9D:2833       INITP8
 1C9D:2B2F       SET_ACTUAL
 1C9D:2BEA       FINDDM
 1C9D:2C5C       INTVRST
 1C9D:2D25       DISPSMP
 1C9D:2F60       INITEND
 1C9D:2F60       FCSTART
 9999:0000  Abs  TCBSTART
 9999:0001  Abs  TCBTYPE
 9999:0008  Abs  TCBTCBPN
 9999:000A  Abs  TCBTCBPP
 9999:0010  Abs  TCBID
 9999:0012  Abs  TCBNCADR
 9999:0014  Abs  TCBBEGAD
 9999:0016  Abs  TCBENDAD
 9999:0018  Abs  TCBPRI
 9999:0019  Abs  TCBSLICE
 9999:001A  Abs  TCBWAIT
 9999:001B  Abs  TCBSTAT
 9999:001C  Abs  TCBPOLL
 9999:0020  Abs  TCBERRCOD
 9999:0021  Abs  TCBPRGNM
 9999:002C  Abs  TCBIBASE
 9999:002E  Abs  TCBIBSIZ
 9999:0030  Abs  TCBLOOP
 9999:0031  Abs  TCBKSHFT
 9999:0032  Abs  TCBKSHF2
 9999:0034  Abs  TCBMODE
 9999:0035  Abs  TCBPAGE
 9999:0036  Abs  TCBCOLS
 9999:0037  Abs  TCBROWS
 9999:0038  Abs  TCBSCLN
 9999:003A  Abs  TCBPGLN
 9999:003C  Abs  TCBPGST
 9999:003E  Abs  TCBCPOS
 9999:004E  Abs  TCBCTYP
 9999:0050  Abs  TCBPAL
 9999:0051  Abs  TCBOMODE
 9999:0052  Abs  TCBWINPO
 9999:0053  Abs  TCBVRAM
 9999:0054  Abs  TCBVIDH1
 9999:0056  Abs  TCBVIDP1
 9999:0058  Abs  TCBVIDW2
 9999:005A  Abs  TCBTFBPF
 9999:005C  Abs  TCBCDBPF
 9999:005E  Abs  TCBCDBPC
 9999:0060  Abs  TCBNDRIV
 9999:0061  Abs  TCBCDRIV
 9999:0062  Abs  TCBDTA
 9999:0066  Abs  TCBOLDPSP
 9999:0068  Abs  TCBOLDMBPF
 9999:006A  Abs  TCBVFLG
 9999:006B  Abs  TCBBRK
 9999:006C  Abs  TCBNTRY
 9999:006E  Abs  TCBTTRY
 9999:0070  Abs  TCBAUXBT
 9999:0071  Abs  TCBAUXCT
 9999:0072  Abs  TCBSPLTM
 9999:0074  Abs  TCBSPOOL
 9999:0076  Abs  TCBLPTXL
 9999:007A  Abs  TCBCLASS
 9999:007B  Abs  TCBUSER
 9999:007F  Abs  TCBCDFT
 9999:0080  Abs  TCBCMAP
 9999:0088  Abs  TCBCTXP
 9999:008A  Abs  TCBSP
 9999:008C  Abs  TCBSTKP
 9999:008E  Abs  TCBSVSP
 9999:0090  Abs  TCBLAGCNT
 9999:0094  Abs  TCBMMHDL
 9999:009C  Abs  TCBMMPGS
 9999:00A4  Abs  TCBVMHDL
 9999:00A8  Abs  TCBVMPGS
 9999:00AC  Abs  TCBEMS
 9999:00AE  Abs  TCB87SAV
 9999:00B0  Abs  TCBPRITM
 9999:00B2  Abs  TCBMCOUNT
 9999:00B6  Abs  TCBWTAX
 9999:00B8  Abs  TCBWTCX
 9999:00BA  Abs  TCBWINFO
 9999:00BC  Abs  TCBWTFLG
 9999:00BD  Abs  TCBCAMON
 9999:00BE  Abs  TCBBASEG
 9999:00C0  Abs  TCBERRVOL
 9999:00C4  Abs  TCBRETC
 9999:00C6  Abs  TCBAPV0A
 9999:00CA  Abs  TCBAPV0B
 9999:00CE  Abs  TCBAPV0C
 9999:00D2  Abs  TCBAPV0D
 9999:00D6  Abs  TCBAPV0E
 9999:00DA  Abs  TCBAPV0F
 9999:00DE  Abs  TCBAPV70
 9999:00E2  Abs  TCBAPV71
 9999:00E6  Abs  TCBAPV72
 9999:00EA  Abs  TCBAPV73
 9999:00EE  Abs  TCBAPV74
 9999:00F2  Abs  TCBAPV75
 9999:00F6  Abs  TCBAPV76
 9999:00FA  Abs  TCBAPV77
 9999:00FE  Abs  TCBKBCNT
 9999:00FF  Abs  TCBKBFST
 9999:0100  Abs  TCBKBFCT
 9999:0101  Abs  TCBKBMAX
 9999:0102  Abs  TCBKBAX
 9999:0104  Abs  TCBKBCX
 9999:0106  Abs  TCBKBTCK
 9999:0108  Abs  TCBKEYRDY
 9999:010C  Abs  TCBNXTDD
 9999:010E  Abs  TCBSCRDD
 9999:0110  Abs  TCBALTNUM
 9999:0112  Abs  TCBKTGGL
 9999:0113  Abs  TCBKBCTL
 9999:0114  Abs  TCBLASTKY
 9999:0116  Abs  TCBLSCAN
 9999:0117  Abs  TCBALT999
 9999:0118  Abs  TCBI9SEG
 9999:011A  Abs  TCBI9FLG
 9999:011B  Abs  TCBMOSKEY
 9999:011C  Abs  TCBTRAPCD
 9999:011D  Abs  TCBPRT61
 9999:011E  Abs  TCBFSAVR
 9999:011F  Abs  TCBNOGET
 9999:0120  Abs  TCBVRTIM
 9999:0122  Abs  TCBPTMR
 9999:0124  Abs  TCBCMODE
 9999:0125  Abs  TCBEGA
 9999:0126  Abs  TCBSPSKP
 9999:0127  Abs  TCBPRNDX
 9999:0128  Abs  TCBPRPRT
 9999:012A  Abs  TCBTOAX
 9999:012C  Abs  TCBTOCX
 9999:012E  Abs  TCBAUXTM
 9999:0130  Abs  TCBSPLTP
 9999:0132  Abs  TCBSPLTC
 9999:0134  Abs  TCBLLSER
 9999:0136  Abs  TCB$HDR
 9999:013A  Abs  TCB$CA
 9999:013B  Abs  TCB$ASI
 9999:013C  Abs  TCB$IQ
 9999:013D  Abs  TCB$EF
 9999:013E  Abs  TCB$TCP
 9999:0140  Abs  TCB$KP
 9999:0141  Abs  TCB$HB
 9999:0142  Abs  TCB$ER
 9999:0144  Abs  TCB$EBP
 9999:0146  Abs  TCB$EB
 9999:0182  Abs  TCBDEVHDR
 9999:0186  Abs  TCBDNUM
 9999:0187  Abs  TCBPCNT
 9999:0188  Abs  TCBCONFG
 9999:0189  Abs  TCB%EBUF
 9999:0288  Abs  TCB%ECOL
 9999:028A  Abs  TCB%BLEN
 9999:028C  Abs  TCBTSK38
 9999:0290  Abs  TCBPARM2E
 9999:029E  Abs  TCBORIG8
 9999:02A2  Abs  TCBORIG1C
 9999:02A6  Abs  TCBMREADY
 9999:02AA  Abs  TCBCRIT24
 9999:02AB  Abs  TCBHOLD
 9999:02B1  Abs  TCBPSCAN
 9999:02B2  Abs  TCBLOCKER
 9999:02B3  Abs  TCBSLCNT
 9999:02B4  Abs  TCB_MACHINE_NAME
 9999:02C4  Abs  TCB_MACHINE_ID
 9999:02C6  Abs  TCB_MALLOC_STRATEGY
 9999:02C8  Abs  TCBVERSN
 9999:02CA  Abs  TCB15AX
 9999:02CC  Abs  TCB15CX
 9999:02CE  Abs  TCBBBSY
 9999:02CF  Abs  TCBDBSY
 9999:02D0  Abs  TCBIRETRY
 9999:02D1  Abs  FILLER
 9999:02D2  Abs  TCBIN10
 9999:02D3  Abs  TCB13ONCE
 9999:02D4  Abs  TCBOCLASS
 9999:02D5  Abs  TCBODRIV
 9999:02D6  Abs  TCBRSTOK
 9999:02D7  Abs  TCBKBRATE
 9999:02D8  Abs  TCBKBCMD
 9999:02D9  Abs  TCBKBSTG
 9999:02DA  Abs  TCB15SUPR
 9999:02DB  Abs  TCBCONLY
 9999:02DC  Abs  TCBTCTST
 9999:02DD  Abs  TCBTCTND
 9999:02DE  Abs  TCBPSP
 9999:02E0  Abs  TCBTEXT2E
 9999:0361  Abs  TCBNEST13
 9999:0362  Abs  TCBCHN13
 9999:0376  Abs  TCBBDBWF
 9999:0377  Abs  TCBDBWAX
 9999:0379  Abs  TCBDBWCX
 9999:037B  Abs  TCBCON417
 9999:037C  Abs  TCBD40F
 9999:037D  Abs  TCBTSLNST
 9999:037E  Abs  TCB24NEST
 9999:037F  Abs  TCBCHDR
 9999:0383  Abs  TCBCDAY
 9999:0385  Abs  TCBSAV24
 9999:0387  Abs  TCBHDL24
 9999:0389  Abs  TCBTPFRM
 9999:038B  Abs  TCBPOST
 9999:038F  Abs  TCB%SB0A
 9999:058F  Abs  TOPSB0A
 9999:0590  Abs  TCB%RS0A
 9999:0592  Abs  TCB%RP0A
 9999:0594  Abs  TCB%CP0A
 9999:0596  Abs  TCB%RS3F
 9999:0598  Abs  TCB%RP3F
 9999:059A  Abs  TCB%CP3F
 9999:059C  Abs  TCB%DBUF
 9999:05A4  Abs  TCB%CBOT
 9999:05A5  Abs  TCB%STCL
 9999:05A6  Abs  TCB%NSTLN
 9999:05A7  Abs  TCB%LREF
 9999:05A8  Abs  TCB%MAXC
 9999:05A9  Abs  TCB%MAXL
 9999:05AA  Abs  TCB%DLEN
 9999:05AC  Abs  TCB%LTC
 9999:05AE  Abs  TCB%TTC
 9999:05B0  Abs  TCB%NMXB
 9999:05B2  Abs  TCB%STGC
 9999:05B4  Abs  TCB%INSF
 9999:05B5  Abs  TCB%FLGS
 9999:05B6  Abs  TCBBRKFG
 9999:05B7  Abs  TCBNEST
 9999:05B8  Abs  TCBORGSP
 9999:05BA  Abs  TCBSREG
 9999:05D0  Abs  TCBCONDD
 9999:05D4  Abs  TCBDLOFS
 9999:05D6  Abs  TCBDLSEG
 9999:05D8  Abs  TCBDCOFS
 9999:05DA  Abs  TCBDCOL
 9999:05DB  Abs  TCBPORT
 9999:05DD  Abs  TCBBAUD
 9999:0600  Abs  TCBPRESEG
 9999:0602  Abs  TCBACTSEG
 9999:0604  Abs  TCB%SB3F
 9999:0706  Abs  TCBMPORT
 9999:0706  Abs  TOPSB3F
 9999:0708  Abs  TCBMTIMER
 9999:070A  Abs  TCBMOUSE
 9999:070B  Abs  TCBUPOLL
 9999:070F  Abs  TCBPARNT
 9999:0711  Abs  TCBAUTOE
 9999:0759  Abs  TCBSHARE
 9999:075A  Abs  TCBFLIMIT
 9999:075B  Abs  TCBLOCK
 9999:075C  Abs  TCBDPMI
 9999:075E  Abs  TCBDPMISEL
 9999:0760  Abs  TCBBATNM
 9999:0764  Abs  TCB_MALLOC_MARK
 9999:0766  Abs  TCBCACER
 9999:0767  Abs  FILLERX
 9999:076C  Abs  TCBIRQCNT
 9999:076D  Abs  TCBCRIT
 9999:076E  Abs  TCBSTATION
 9999:076F  Abs  TCBTSRFLG
 9999:0770  Abs  TCBVIDAD
 9999:0772  Abs  TCBALTAC
 9999:0773  Abs  TCBALTACF
 9999:0774  Abs  TCBALTDN
 9999:0775  Abs  TCBNEST9
 9999:0776  Abs  TCBCHN9
 9999:078A  Abs  TCBNEST8
 9999:078B  Abs  TCBCHN8
 9999:079F  Abs  TCBFWAKE
 9999:07A0  Abs  TCBSIORB
 9999:07A1  Abs  TCBSAFE28
 9999:07A2  Abs  TCBVIDSET
 9999:07A6  Abs  TCBUNREG
 9999:07AA  Abs  TCBL43
 9999:07AB  Abs  TCBL40
 9999:07AD  Abs  TCBPAMFG
 9999:07AE  Abs  TCBPRIPN
 9999:07B0  Abs  TCBCNTXPT
 9999:07B2  Abs  TCBT3X4
 9999:07B3  Abs  TCBTCHIGH
 9999:07B4  Abs  TCBTCLOW
 9999:07B5  Abs  TCBCOUNT
 9999:07B7  Abs  TCBEXEC3D
 9999:07B8  Abs  TCBOPEN60
 9999:07BC  Abs  TCBSTATE
 9999:07BE  Abs  TCBUSERAREA
 9999:07CF  Abs  TCBVIDEO
 9999:07D0  Abs  TCBATTEND
 9999:07D4  Abs  TCBIRQPN
 9999:07E0  Abs  TCBIRQSEC
 9999:07E1  Abs  TCBWPEND
 9999:07E2  Abs  TCBPAM
 9999:07E3  Abs  TCBCRTIO
 9999:07E4  Abs  TCB03B8
 9999:07E5  Abs  TCB03BF
 9999:07E6  Abs  TCBTCCNT
 9999:07E7  Abs  TCBSWFLG
 9999:07E8  Abs  TCBSWITCH
 9999:07E9  Abs  TCBBPCNT
 9999:07EA  Abs  TCBLSTTL
 9999:07EC  Abs  TCBKBANSI
 9999:07EE  Abs  TCBKBANLOW
 9999:07EF  Abs  TCBKBANHI
 9999:07F0  Abs  TCBKBOFF
 9999:07F2  Abs  TCBEMSSEG
 9999:07F4  Abs  TCBDDJMP1
 9999:07F9  Abs  TCBDDJMP2
 9999:07FE  Abs  TCBREBOOT
 9999:07FF  Abs  TCBWATCH
 9999:0801  Abs  TCBANSI
 9999:0802  Abs  TCBDIDKEY
 9999:0803  Abs  TCB$WRAP
 9999:0804  Abs  TCBINMOS
 9999:0806  Abs  TCB28CNT
 9999:0808  Abs  TCB28TIMER
 9999:0809  Abs  TCBEQUIP
 9999:080A  Abs  TCBFLUSH
 9999:080B  Abs  TCB3C2
 9999:080C  Abs  TCBMBPF
 9999:080E  Abs  TCBDPBPF
 9999:0812  Abs  TCBSFTPTR
 9999:0816  Abs  TCBCLKDEV
 9999:081A  Abs  TCBCONDEV
 9999:081E  Abs  TCBSECSIZ
 9999:0820  Abs  TCBDPBPO
 9999:0824  Abs  TCBDINFO
 9999:0828  Abs  TCBFCBPTR
 9999:082F  Abs  TCBLASTDRV
 9999:0830  Abs  TCBDDPF
 9999:085C  Abs  TCB_COM_HOLD
 9999:088C  Abs  TCBEGAPAL
 9999:08A0  Abs  TCBNO24
 9999:08A1  Abs  FILLERZ
 9999:08B1  Abs  TCBMINSTK
 9999:0E8D  Abs  TCBSTACK

Program entry point at 0000:0100
