LINK : warning L4021: no stack segment

 Start  Stop   Length Name                   Class
 00000H 0615EH 0615FH MOSS                   CODE

  Address         Publics by Name

 0000:037F       ALLIAS
 0000:1132       ALLMEM
 0000:1CF1       AMBEGIN
 0000:1CF3       AMEND
 0000:1CDC       AMSTART
 0000:1FE6       ASM
 0000:1FFC       ASM1
 0000:2006       ASM2
 0000:1AD6       ASMAREA
 0000:1B26       ASMLOC
 0000:2D7F       ASMUN
 0000:2D97       ASMUN1
 0000:2DA5       ASMUN2
 0000:2DB6       ASMUN3
 0000:13CE       BADADR
 0000:1382       BADBP
 0000:13A4       BADBPAD
 0000:1593       BADFLAG
 0000:24B2       BADLOAD
 0000:175A       BADNAME
 0000:17E0       BADOP
 0000:1800       BADREAD
 0000:1573       BADREG
 0000:1824       BADWRIT
 0000:3114       BC1
 0000:311D       BC2
 0000:3132       BC3
 0000:1366       BCLRMSG
 0000:1C62       BEGIN
 0000:1D78       BEGIN1
 0000:1D85       BEGIN2
 0000:1DBA       BEGIN3
 0000:1DC0       BEGIN3A
 0000:1DCD       BEGIN3B
 0000:1E2B       BEGIN3C
 0000:1E31       BEGIN4
 0000:1E41       BEGIN4A
 0000:1EA0       BEGIN5
 0000:1CAD       BEGINA
 0000:112B       BFLAG
 0000:1958       BLANK1
 0000:1957       BLANK2
 0000:1468       BOFFMSG
 0000:144A       BONMSG
 0000:3095       BP0
 0000:309F       BP1
 0000:30F6       BP12
 0000:30A5       BP2
 0000:30BF       BP3
 0000:30C5       BP4
 0000:30CE       BP5
 0000:30DD       BP6
 0000:30EB       BP7
 0000:3100       BPCLR
 0000:318C       BPD1
 0000:31B2       BPD2
 0000:31B6       BPD3
 0000:316F       BPDISP
 0000:1124       BPFLAG
 0000:1402       BPFULL
 0000:1C2E       BPINS
 0000:3142       BPL1
 0000:3157       BPL2
 0000:315C       BPL3
 0000:3169       BPL4
 0000:3137       BPLIST
 0000:3069       BPOFF
 0000:3058       BPON
 0000:307A       BPSET
 0000:1BDE       BPTAB
 0000:1421       BPTHERE
 0000:3563       BREAK2
 0000:35AB       BREAK3
 0000:1128       BRK
 0000:1362       BSETEND
 0000:1345       BSETMSG
 0000:184C       BUFF
 0000:189C       BUFFBKP
 0000:366B       CB1
 0000:1719       CBADMSG
 0000:1A56       CDIR
 0000:1A52       CDIRLEN
 0000:3291       CFIG1
 0000:32B1       CFIG3
 0000:1B32       CHILDPSP
 0000:117B       CHIP
 0000:52E1       CHKDONE
 0000:52CF       CHKLOOP
 0000:52EF       CHKOK
 0000:54BC       CHKSIZE
 0000:371D       CLRBRK
 0000:387E       CLRSBUF
 0000:184D       CMDBUFF
 0000:0266       CMDEND
 0000:1B46       CMDES
 0000:0027  Abs  CMDLN
 0000:1947       CMDOUT
 0000:1B44       CMDSP
 0000:1B42       CMDSS
 0000:0218       CMDTAB
 0000:2F23       COMOUT
 0000:2019       COMP
 0000:2044       COMP0
 0000:205B       COMP1
 0000:20AC       COMP2
 0000:20B7       COMP3
 0000:20B9       COMP4
 0000:20BB       COMP5
 0000:18F0       COMSPEC
 0000:3329       CONBAD
 0000:32F7       CONBYTE
 0000:3330       CONEND
 0000:3262       CONFIG
 0000:3336       CONS0
 0000:3348       CONS1
 0000:3358       CONS2
 0000:3301       CONSET
 0000:3314       CONSKIP
 0000:32B8       CONSOLE
 0000:1F94       CONT
 0000:18F8       CPBUFF
 0000:1B7E       CPPARMS
 0000:1120       CPU
 0000:01B5       CPUMSG
 0000:1EAB       CPUVER
 0000:1200       CRLF
 0000:11FE       CRLF2
 0000:54CC       CS2
 0000:54FD       CSEND
 0000:3627       CTLBRK
 0000:1A53       CURRENT
 0000:1712       DBAD
 0000:1B64       DBADDR
 0000:1EED       DBCON1
 0000:16EE       DBMSG
 0000:1B66       DBPORT
 0000:1B34       DEBUGPSP
 0000:3372       DELAY
 0000:337F       DELAY1
 0000:3399       DELAY2
 0000:33A0       DELAY3
 0000:55DF       DISPFG
 0000:55EE       DISPFG1
 0000:55F9       DISPFG2
 0000:560D       DISPOP
 0000:5704       DISPOP1
 0000:5711       DISPOP2
 0000:5724       DISPOP3
 0000:572C       DISPOP4
 0000:5730       DISPOP5
 0000:5732       DISPOP6
 0000:5742       DISPOP7
 0000:5D68       DISPOP8
 0000:1B60       DLOC
 0000:1647       DNRERR
 0000:2E3B       DOF3
 0000:2E4E       DOF3LP
 0000:2E39       DONULL
 0000:5754       DOP00
 0000:5775       DOP001
 0000:5779       DOP002
 0000:578E       DOP003
 0000:57B4       DOP004
 0000:57C0       DOP01
 0000:57D8       DOP011
 0000:584C       DOP012
 0000:5852       DOP013
 0000:585F       DOP013A
 0000:5874       DOP014
 0000:5813       DOP01I
 0000:5878       DOP02
 0000:5893       DOP03
 0000:58AA       DOP04
 0000:58C0       DOP05
 0000:58DE       DOP06
 0000:58EA       DOP08
 0000:5913       DOP081
 0000:5919       DOP082
 0000:5925       DOP09
 0000:594E       DOP091
 0000:5954       DOP092
 0000:5964       DOP0A
 0000:5979       DOP0A1
 0000:597D       DOP0A2
 0000:5983       DOP0B
 0000:5994       DOP0C
 0000:59AB       DOP0E
 0000:59C6       DOP0F
 0000:59E1       DOP10
 0000:59F7       DOP11
 0000:5A1F       DOP11A
 0000:5A23       DOP11B
 0000:5A44       DOP11C
 0000:5A58       DOP11D
 0000:5A61       DOP11E
 0000:5A6B       DOP12
 0000:5A89       DOP12A
 0000:5AA3       DOP12B
 0000:5AAC       DOP12C
 0000:5AB4       DOP13
 0000:5ACA       DOP14
 0000:5B0A       DOP14A
 0000:5B10       DOP14B
 0000:5B14       DOP15
 0000:5B51       DOP16
 0000:5B8E       DOP17
 0000:5BAE       DOP18
 0000:5BCD       DOP19
 0000:5BEC       DOP1A
 0000:5C0B       DOP1B
 0000:5C2A       DOP1C
 0000:5C4E       DOP1D
 0000:5C72       DOP1E
 0000:5C77       DOP1F
 0000:5C83       DOP21
 0000:5C87       DOP21A
 0000:5C9A       DOP22
 0000:5CA0       DOP23
 0000:5CB7       DOP24
 0000:5CCE       DOP25
 0000:5CE1       DOP26
 0000:5CF4       DOP27
 0000:5D07       DOP28
 0000:5D1A       DOP2A
 0000:5D3A       DOP2B
 0000:5D45       DOP2C
 0000:3896       DOPFUN
 0000:5753       DOPRET
 0000:2E23       DOSCR
 0000:2E30       DOSCR1
 0000:2E39       DOSCR2
 0000:3826       DOSWAP
 0000:1F13       DOTSL
 0000:1F38       DOTSL1
 0000:5FB2       DREG3
 0000:5FB6       DREG4
 0000:1669       DRV
 0000:3830       DSEND
 0000:1FE2       DUMMY
 0000:20C3       DUMP
 0000:20E6       DUMP0
 0000:20EA       DUMP1
 0000:2183       DUMP10
 0000:2120       DUMP2
 0000:2138       DUMP3
 0000:214B       DUMP4
 0000:214D       DUMP5
 0000:2156       DUMP6
 0000:216D       DUMP7
 0000:217D       DUMP8
 0000:217F       DUMP9
 0000:19AC       DUMPBUFF
 0000:218D       DUMPDON
 0000:1B2A       DUMPLOC
 0000:5EDF       DUMPREG
 0000:615F       ENDBYTE
 0000:1E10       ENDFCB
 0000:2194       ENTR
 0000:21C0       ENTR1
 0000:21D1       ENTR2
 0000:2201       ENTR21
 0000:2231       ENTR22
 0000:224F       ENTR23
 0000:2256       ENTRDON
 0000:2224       ENTRUS
 0000:1B4E       ENV
 0000:1B2E       ENVSEG
 0000:5550       ERRDISP
 0000:555E       ERRDONE
 0000:554C       ERRGEN
 0000:5517       ERRMSG
 0000:5536       ERRMSG1
 0000:5541       ERRMSG2
 0000:1F83       ERRRP
 0000:0218       EXEEND
 0000:1131       EXEFLAG
 0000:0027  Abs  EXELEN
 0000:01CA       EXETAB
 0000:1F9F       EXITDEB
 0000:36B0       FATAL
 0000:1B54       FCB1LOC
 0000:1B58       FCB2LOC
 0000:1C42       FCBBUF1
 0000:1C52       FCBBUF2
 0000:3DE1       FD1
 0000:40FD       FD10
 0000:4132       FD101
 0000:419E       FD1010
 0000:41A3       FD1011
 0000:41A8       FD1012
 0000:4137       FD102
 0000:413C       FD103
 0000:4141       FD104
 0000:4146       FD105
 0000:4152       FD106
 0000:415E       FD107
 0000:4179       FD108
 0000:4199       FD109
 0000:412F       FD10BAD
 0000:4176       FD10BD
 0000:41AD       FD10CMP
 0000:4118       FD10NXT
 0000:41B6       FD10OK
 0000:41D1       FD11
 0000:4217       FD11AL
 0000:4216       FD11AX
 0000:422A       FD11DON
 0000:41F3       FD11DX
 0000:4219       FD11ERR
 0000:421F       FD11OK
 0000:422C       FD12
 0000:4243       FD12NR
 0000:424E       FD12NRD
 0000:424F       FD13
 0000:42A3       FD13BAD
 0000:4299       FD13CMP
 0000:42A6       FD13DON
 0000:4267       FD13DS
 0000:4271       FD13ES
 0000:42A8       FD13NR
 0000:42B3       FD13NRD
 0000:427B       FD13REG
 0000:4293       FD13RG
 0000:425D       FD13SS
 0000:42B4       FD14
 0000:42D4       FD14A
 0000:42DF       FD14OK
 0000:42E2       FD15
 0000:42FC       FD151
 0000:4301       FD153
 0000:4306       FD155
 0000:430B       FD156
 0000:4310       FD157
 0000:4316       FD158
 0000:42F9       FD15BAD
 0000:431C       FD15CMP
 0000:431E       FD15CP1
 0000:4325       FD16
 0000:4377       FD161
 0000:434A       FD16A
 0000:4388       FD16BAD
 0000:438C       FD17
 0000:43BD       FD171
 0000:43D9       FD172
 0000:43F5       FD173
 0000:4414       FD174
 0000:4430       FD175
 0000:444C       FD176
 0000:43B1       FD17A
 0000:43B2       FD17B
 0000:43B9       FD17BAD
 0000:4411       FD17OK
 0000:4472       FD18
 0000:448C       FD181
 0000:449E       FD182
 0000:44B0       FD183
 0000:44C5       FD184
 0000:44D7       FD185
 0000:44E9       FD186
 0000:4489       FD18BAD
 0000:44C2       FD18OK
 0000:3E17       FD1A
 0000:3DEE       FD1AA
 0000:3DFD       FD1AB
 0000:3E1C       FD1B
 0000:3E96       FD1BAD
 0000:3E46       FD1C
 0000:3E8C       FD1CMP
 0000:3E4B       FD1D
 0000:3E99       FD1DONE
 0000:3E54       FD1E
 0000:3E6A       FD1F
 0000:3E75       FD1G
 0000:3E9B       FD2
 0000:3F09       FD2BAD
 0000:3F02       FD2CMP
 0000:3EFF       FD2EA
 0000:3ED9       FD2FAR
 0000:3EE0       FD2FAR0
 0000:3EE6       FD2FAR1
 0000:3EB4       FD2NFAR
 0000:3EEC       FD2NR
 0000:3EF3       FD2NR0
 0000:3EF9       FD2NR1
 0000:3F06       FD2OK
 0000:3F0D       FD3
 0000:3F2C       FD3BAD
 0000:3F2F       FD3OK
 0000:3F30       FD4
 0000:3F65       FD4BAD
 0000:3F69       FD4EA
 0000:3F68       FD4OK
 0000:3F55       FD4REGB
 0000:3F45       FD4REGW
 0000:3F82       FD5
 0000:3F83       FD6
 0000:3F99       FD6AL
 0000:3F98       FD6AX
 0000:3FDC       FD6DONE
 0000:3FCE       FD6DX
 0000:3FC8       FD6ERR
 0000:3FD1       FD6OK
 0000:3FDE       FD7
 0000:400C       FD7A
 0000:4025       FD7BP
 0000:4042       FD7ERR
 0000:403F       FD7OK
 0000:4033       FD7WP
 0000:4045       FD8
 0000:44FB       FD80
 0000:450A       FD81
 0000:4468       FD8183
 0000:446F       FD8183A
 0000:4519       FD83
 0000:406C       FD8DONE
 0000:4069       FD8ERR
 0000:405F       FD8INT3
 0000:4065       FD8OK
 0000:406E       FD9
 0000:40BC       FD9BAD
 0000:40F3       FD9CMP
 0000:40FC       FD9DONE
 0000:40EE       FD9EA
 0000:40F5       FD9ECMP
 0000:40DE       FD9FAR
 0000:40E9       FD9NEA
 0000:40CF       FD9NR
 0000:40DA       FD9SH
 0000:40C0       FD9TFAR
 0000:4091       FD9V
 0000:4528       FDXXBAD
 0000:226D       FILL
 0000:2299       FILL1
 0000:22A3       FILL2
 0000:22A7       FILLEND
 7777:02D1  Abs  FILLER
 7777:0767  Abs  FILLERX
 7777:08A1  Abs  FILLERZ
 0000:3C98       FINDMAP
 0000:3D3C       FINDOP
 0000:394E       FINDTAB
 0000:3BE7       FIX0
 0000:3BEC       FIX1
 0000:3BF6       FIX2
 0000:3BFA       FIX3
 0000:3BFD       FIX4
 0000:3BBA       FIXBUFF
 0000:3BDB       FIXLOOP
 0000:1949       FLAGBUF
 0000:123B       FLAGMSG
 0000:3CBB       FMDONE
 0000:3CB2       FMERR
 0000:3CB7       FMFOUND
 0000:3CA2       FMLOOP
 0000:3D82       FND1
 0000:3D8F       FND2
 0000:3D91       FND3
 0000:3D95       FND4
 0000:3DC3       FND5
 0000:3DD8       FND6
 0000:3DDB       FND7
 0000:3DBC       FNDCALL
 0000:3DBE       FNDRET
 0000:14C8       FNFMSG
 0000:3D62       FOP1
 0000:3D70       FOP2
 0000:3D59       FOPCONT
 0000:3D55       FOPERR
 0000:3D42       FOPLP
 0000:55A5       FRFLAG
 0000:36C6       FT1
 0000:037E       FULLLOAD
 0000:184C       FUNCT
 0000:3BD2       FXDONE
 0000:3BC5       FXLOOP
 0000:5058       GADDR1
 0000:5066       GADDR2
 0000:5EA0       GECOMP
 0000:5ED1       GEDONE
 0000:5E93       GEFIN
 0000:5E82       GELOOP
 0000:3AB7       GET1
 0000:3ABE       GET2
 0000:6151       GET8087
 0000:5041       GETADDR
 0000:5FF5       GETALL
 0000:1A02       GETBUFF
 0000:3A4E       GETCMD
 0000:5E5F       GETENV
 0000:510F       GETHEX
 0000:5EDA       GETKBD
 0000:2DC8       GETKEY
 0000:2DD4       GETKEY1
 0000:4F4D       GETLEN
 0000:4F5B       GETLEN0
 0000:4F73       GETLEN1
 0000:4F74       GETLEN2
 0000:4F84       GETLEN3
 0000:4F8F       GETLEN4
 0000:4FA3       GETLEN5
 0000:4FA6       GETLIST
 0000:2DF5       GETMSG
 0000:3AC3       GETOP
 0000:4F31       GETRANG
 0000:4ECE       GETREG
 0000:5001       GETRVAL
 0000:1B76       GETSI
 0000:5EB9       GEVAL
 0000:5123       GHEX1
 0000:513C       GHEX2
 0000:514C       GHEX3
 0000:5160       GHEX4
 0000:518F       GHEX6
 0000:5196       GHEX7
 0000:4FC0       GLIST1
 0000:4FE5       GLIST2
 0000:4FF2       GLIST2A
 0000:4FF5       GLIST3
 0000:4FFD       GLIST4
 0000:2E0C       GMSG1
 0000:2E63       GMSG1A
 0000:2E69       GMSG1B
 0000:2E87       GMSG2
 0000:2E8E       GMSG3
 0000:2E9A       GMSGEND
 0000:22AF       GO
 0000:22F2       GO1
 0000:22FA       GO2
 0000:2312       GO3
 0000:232B       GO3BAD
 0000:2335       GO4
 0000:23E3       GO5
 0000:23F0       GOEND
 0000:1126       GOFLAG
 0000:3B2F       GOPDO
 0000:3B40       GOPDO1
 0000:3BB8       GOPEND
 0000:3BB1       GOPERR
 0000:3B9B       GOPFEND
 0000:3B98       GOPFND
 0000:3BA4       GOPFOK
 0000:3BAD       GOPMOK
 0000:3B94       GOPNDB
 0000:3B47       GOPSOK
 0000:3B6E       GOPXDB
 0000:23A9       GORET
 0000:22BE       GOSCLR
 0000:4F47       GRANG1
 0000:4ECF       GREG1
 0000:4F2D       GREG10
 0000:4F2F       GREG11
 0000:4EE0       GREG2
 0000:4EED       GREG3
 0000:4EFC       GREG4
 0000:4EFF       GREG5
 0000:4F01       GREG6
 0000:4F0B       GREG7
 0000:4F11       GREG8
 0000:4F27       GREG9
 0000:500F       GRV0
 0000:5033       GRV1
 0000:503D       GRV2
 0000:2FFD       HELP
 0000:0026  Abs  HELPLEN
 0000:0DF2       HELPTAB
 0000:23FD       HEX
 0000:1110       HEXTAB
 0000:300E       HLOOP
 0000:3014       HLOOP2
 0000:3749       IB0
 0000:374C       IB1
 0000:375A       IB2
 0000:3764       IB3
 0000:3772       IBEND
 0000:1E03       INITFCB
 0000:2440       INPUT
 0000:2453       INPUT1
 0000:247F       INPUT2
 0000:3734       INSBRK
 0000:178F       INTERN
 0000:6144       IS8087
 0000:5652       IS8283
 0000:56A3       ISD0D1
 0000:56B2       ISD2D3
 0000:112F       ISLOAD
 0000:1E70       ISTERM
 0000:1BC1       LASTERR
 0000:1B78       LASTOP
 0000:1BBC       LASTVAL
 0000:52B0       LCOMTST
 0000:2559       LDERR
 0000:2587       LDEXIT
 0000:2585       LDOK
 0000:18EC       LENBKP
 0000:189B       LENBUFF
 0000:52BD       LEXEDON
 0000:52C2       LEXEFIN
 0000:2486       LOAD
 0000:24B5       LOAD1
 0000:24C6       LOAD1A
 0000:252F       LOAD2
 0000:255E       LOAD3
 0000:2561       LOAD4
 0000:1AE2       LOADBUF
 0000:1AE1       LOADCT
 0000:2576       LOADDO
 0000:54B1       LOADEND
 0000:5293       LOADEXE
 0000:2583       LOADOK
 0000:5284       LOADPRG
 0000:5430       LOADREG
 0000:5499       LOADTRM
 0000:5418       LPBEGIN
 0000:541A       LPEND
 0000:5424       LPERROR
 0000:53C2       LPINIT1
 0000:53CF       LPINIT2
 0000:53DC       LPINIT3
 0000:53E0       LPLINE1
 0000:53ED       LPLINE2
 0000:5310       LPRG1
 0000:53F5       LPRG2
 0000:5417       LPRG2OK
 0000:53B6       LPRG4B
 0000:531C       LPRGFIL
 0000:24F6       LRETURN
 0000:2506       LSKIP
 0000:4C12       M156BAD
 0000:4C16       M156DON
 0000:4BF3       M156L
 0000:4BEC       M156OK
 0000:4C05       M156S
 0000:4C15       M156SD
 0000:112E       MAINCON
 0000:5E3C       MAKE
 0000:5E25       MAKE1
 0000:5D78       MAKEEA
 0000:51E1       MAKEFCB
 0000:5E31       MAKEHEX
 0000:458C       MAKEOP
 0000:5E1D       MAKEREG
 0000:452B       MAKERM
 0000:539E       MANCLS
 0000:5398       MANDONE
 0000:5389       MANERR
 0000:53A2       MANFIN
 0000:5351       MANLP1
 0000:535B       MANLP2
 0000:3CC0       MAP
 0000:114E       MAP10
 0000:1152       MAP10A
 0000:1134       MAP1718
 0000:3CDC       MAPDONE
 0000:3CE0       MAPSCAN
 0000:2F3C       MATH
 0000:2F4F       MATH0
 0000:2FA1       MATH1
 0000:2FB8       MATH2
 0000:2FD1       MATH3
 0000:037C       MAXMEM
 0000:11A5       MCHIP
 0000:1121       MCPU
 0000:5D9C       MEA1
 0000:5E17       MEA10
 0000:5DA4       MEA2
 0000:5DB6       MEA2A
 0000:5DC8       MEA3
 0000:5DCF       MEA4
 0000:5DDC       MEA5
 0000:5DEA       MEA6
 0000:5DFC       MEA7
 0000:5E07       MEA7A
 0000:5E0E       MEA8
 0000:5E13       MEA9
 0000:51FE       MF1
 0000:5205       MF2
 0000:5206       MF3
 0000:5221       MF4
 0000:522C       MFDONE
 0000:521D       MFERROR
 0000:19FC       MINFO
 0000:5231       MKPATH
 0000:0872       MODBYTE
 0000:1BB2       MODES
 0000:0884       MODFAR
 0000:087B       MODWORD
 0000:4632       MOP00
 0000:4676       MOP00BD
 0000:465A       MOP00BR
 0000:4691       MOP00C
 0000:467C       MOP00NR
 0000:465A       MOP00RG
 0000:46D5       MOP00S1
 0000:46E1       MOP00SB
 0000:46AD       MOP00SC
 0000:46E4       MOP00SR
 0000:46D5       MOP00SS
 0000:46E7       MOP01
 0000:4763       MOP01BD
 0000:4741       MOP01BR
 0000:477E       MOP01C
 0000:4719       MOP01NP
 0000:4769       MOP01NR
 0000:470F       MOP01NS
 0000:4741       MOP01RG
 0000:479D       MOP03
 0000:47A1       MOP03C
 0000:47AF       MOP03E
 0000:4794       MOP03R
 0000:47B4       MOP0809
 0000:4822       MOP0A
 0000:4851       MOP0AB
 0000:484C       MOP0AE
 0000:4855       MOP0B
 0000:4859       MOP0BA
 0000:486B       MOP0BB
 0000:487E       MOP0BC
 0000:4888       MOP0BD
 0000:488A       MOP0BE
 0000:48AE       MOP0C
 0000:48DE       MOP0CA
 0000:48E3       MOP0CB
 0000:488A       MOP0CE
 0000:488D       MOP0CF
 0000:48B2       MOP0CV
 0000:48E8       MOP0E
 0000:4912       MOP0EBD
 0000:492E       MOP0EC
 0000:4916       MOP0ENR
 0000:494B       MOP0F
 0000:497D       MOP0FBD
 0000:4999       MOP0FC
 0000:4981       MOP0FNR
 0000:459A       MOP1
 0000:49B6       MOP10
 0000:49C0       MOP11
 0000:4A4F       MOP11BD
 0000:4A2F       MOP11BR
 0000:4A69       MOP11C
 0000:4A7F       MOP11C1
 0000:4A54       MOP11NR
 0000:4A06       MOP11R
 0000:4A2F       MOP11RG
 0000:49E5       MOP12
 0000:4A95       MOP14
 0000:4ACE       MOP14BD
 0000:4AE9       MOP14C
 0000:4ABC       MOP14NP
 0000:4AD4       MOP14NR
 0000:4AFF       MOP15
 0000:4B74       MOP156B
 0000:4B6F       MOP156D
 0000:4BDB       MOP156E
 0000:4B5C       MOP156S
 0000:4B6C       MOP156W
 0000:4B3E       MOP15C
 0000:4B1B       MOP15R
 0000:4B79       MOP16
 0000:4BAF       MOP16RG
 0000:4C1C       MOP18
 0000:4C38       MOP18BD
 0000:45BB       MOP1A
 0000:45C8       MOP1B
 0000:45CE       MOP1C
 0000:45F8       MOP1CA
 0000:45FF       MOP1CB
 0000:4604       MOP1D
 0000:460F       MOP1E
 0000:4C5F       MOP1F
 0000:4C3B       MOP1FA
 0000:4612       MOP2
 0000:4C71       MOP20
 0000:4C77       MOP21
 0000:47E2       MOP89A
 0000:47F5       MOP89B
 0000:481D       MOP89BD
 0000:480D       MOP89C
 0000:47EE       MOP89RG
 0000:4C63       MOPBYTE
 0000:462A       MOPCALL
 0000:462F       MOPCRET
 0000:4C8E       MOPDONE
 0000:4C85       MOPEA
 0000:4C88       MOPERR
 0000:38F2       MOPFUN
 0000:4C8B       MOPRET
 0000:4C6E       MOPXEND
 0000:4C47       MOS1FAL
 0000:3400       MOSINFO
 0000:01A7       MOSOK
 0000:258E       MOVE
 0000:25D0       MOVE1
 0000:25D8       MOVE2
 0000:25E6       MOVE3
 0000:25E8       MOVE4
 0000:25F4       MOVE5
 0000:25F8       MOVEEND
 0000:25BC       MOVINIT
 0000:49E1       MP11BAD
 0000:526B       MPATH1
 0000:527B       MPATH2
 0000:5264       MPATHA
 0000:5269       MPATHB
 0000:526A       MPATHC
 0000:5261       MPATHS
 0000:3CE8       MS0
 0000:3CF4       MS1
 0000:3CFC       MS2
 0000:3D03       MS3
 0000:3D11       MS4
 0000:3D18       MS5
 0000:3D23       MS6
 0000:3D2E       MS7
 0000:3D39       MSBAD
 0000:266D       NAMEDON
 0000:265A       NAMEERR
 0000:2604       NAMEOUT
 0000:2668       NAMESET
 0000:176B       NBAD
 0000:2658       NERR1
 0000:1127       NFILE
 0000:15D6       NOBRK
 0000:2C86       NOCREAT
 0000:1F89       NOERR
 0000:11A2       NOMATH
 0000:14E1       NOMMSG
 0000:1695       NONAME
 0000:1C91       NORIN
 0000:1C7E       NOROUT
 0000:1EE8       NOT386
 0000:153C       NOTALL
 0000:56AA       NOTD0D1
 0000:56CD       NOTD2D3
 0000:1122       NOTDONE
 0000:1E76       NOTTCB
 0000:5690       NOT_80
 0000:569B       NOT_81
 0000:5659       NOT_83
 0000:5664       NOT_F6
 0000:566F       NOT_F7
 0000:567A       NOT_FE
 0000:5685       NOT_FF
 0000:5702       NOT_FFA
 0000:1BC2       OLD01
 0000:1BC6       OLD02
 0000:1BCA       OLD03
 0000:1BCE       OLD20
 0000:1BD2       OLD22
 0000:1BD6       OLD23
 0000:1BDA       OLD24
 0000:0189       ONMOS
 0000:2350       ONPSP
 0000:0871       OP
 0000:05D6       OP186
 0000:0612       OP286
 0000:0853       OP287
 0000:065A       OP386
 0000:0CCC       OP80
 0000:0CEC       OP81
 0000:0D0C       OP8283
 0000:073B       OP87
 0000:03FF       OPAAA
 0000:051D       OPAAD
 0000:0519       OPAAM
 0000:0407       OPAAS
 0000:03E3       OPADC
 0000:03D3       OPADD
 0000:03EB       OPAND
 0000:0612       OPARPL
 0000:086A       OPBAD
 0000:05D6       OPBOUND
 0000:0677       OPBSF
 0000:067B       OPBSR
 0000:067F       OPBT
 0000:0682       OPBTC
 0000:0686       OPBTR
 0000:068A       OPBTS
 0000:195A       OPBUFF
 0000:049F       OPCALL
 0000:0497       OPCBW
 0000:07A4       OPCHS
 0000:0580       OPCLC
 0000:0590       OPCLD
 0000:0588       OPCLI
 0000:0617       OPCLTS
 0000:057C       OPCMC
 0000:0403       OPCMP
 0000:04CA       OPCMPSB
 0000:04D0       OPCMPSW
 0000:085A       OPCSSEG
 0000:049B       OPCWD
 0000:0D2C       OPD0D1
 0000:0D4C       OPD2D3
 0000:03EF       OPDAA
 0000:03F7       OPDAS
 0000:086E       OPDB
 0000:05B2       OPDEC
 0000:05A9       OPDIV
 0000:085E       OPDSSEG
 0000:05DC       OPENTER
 0000:0526       OPESC
 0000:0862       OPESSEG
 0000:07B6       OPF2XM1
 0000:0D6C       OPF6
 0000:0D8C       OPF7
 0000:079F       OPFABS
 0000:0769       OPFADD
 0000:0813       OPFCLEX
 0000:0758       OPFCMPP
 0000:074D       OPFCOM
 0000:0752       OPFCOMP
 0000:083B       OPFDECS
 0000:0801       OPFDISI
 0000:0778       OPFDIV
 0000:0DAC       OPFE
 0000:07FC       OPFENI
 0000:0DCC       OPFF
 0000:0842       OPFFREE
 0000:0834       OPFINCS
 0000:07F6       OPFINIT
 0000:073B       OPFLD
 0000:07CF       OPFLD1
 0000:0807       OPFLDCW
 0000:07D4       OPFLDP1
 0000:07CA       OPFLDZ
 0000:0820       OPFLENV
 0000:07E1       OPFLL2E
 0000:07DA       OPFLL2T
 0000:07E8       OPFLLG2
 0000:07EF       OPFLLN2
 0000:0773       OPFMUL
 0000:0848       OPFNOP
 0000:07AF       OPFPATN
 0000:07A9       OPFPTAN
 0000:078A       OPFREM
 0000:078F       OPFRND
 0000:082D       OPFRSTR
 0000:0827       OPFSAVE
 0000:0783       OPFSCAL
 0000:0819       OPFSENV
 0000:0853       OPFSPM
 0000:077D       OPFSQRT
 0000:073F       OPFST
 0000:080D       OPFSTCW
 0000:0743       OPFSTP
 0000:076E       OPFSUB
 0000:075F       OPFTST
 0000:084D       OPFWAIT
 0000:0764       OPFXAM
 0000:0748       OPFXCH
 0000:0797       OPFXTR
 0000:07BC       OPFYL2X
 0000:07C2       OPFYXP1
 0000:0578       OPHLT
 0000:068E       OPIBTS
 0000:05AD       OPIDIV
 0000:05A4       OPIMUL
 0000:054E       OPIN
 0000:040B       OPINC
 0000:05E2       OPINS
 0000:05E6       OPINSB
 0000:05EB       OPINSW
 0000:050B       OPINT
 0000:050F       OPINTO
 0000:0514       OPIRET
 0000:0443       OPJA
 0000:0429       OPJAE
 0000:0419       OPJB
 0000:043F       OPJBE
 0000:0416       OPJC
 0000:0549       OPJCXZ
 0000:0430       OPJE
 0000:0698       OPJECXZ
 0000:0479       OPJG
 0000:0469       OPJGE
 0000:0466       OPJL
 0000:0471       OPJLE
 0000:0555       OPJMP
 0000:043B       OPJNA
 0000:041C       OPJNAE
 0000:0425       OPJNB
 0000:0446       OPJNBE
 0000:0421       OPJNC
 0000:0437       OPJNE
 0000:0475       OPJNG
 0000:0461       OPJNGE
 0000:046D       OPJNL
 0000:047C       OPJNLE
 0000:0412       OPJNO
 0000:045D       OPJNP
 0000:044E       OPJNS
 0000:0433       OPJNZ
 0000:040F       OPJO
 0000:0456       OPJP
 0000:0452       OPJPE
 0000:0459       OPJPO
 0000:044B       OPJS
 0000:042D       OPJZ
 0000:04B9       OPLAHF
 0000:0507       OPLDS
 0000:053E       OPLE
 0000:048F       OPLEA
 0000:05F0       OPLEAVE
 0000:0503       OPLES
 0000:0666       OPLFS
 0000:061C       OPLGDT
 0000:066A       OPLGS
 0000:0621       OPLIDT
 0000:0626       OPLLDT
 0000:062B       OPLMSW
 0000:0537       OPLNE
 0000:052A       OPLNZ
 0000:0559       OPLOCK
 0000:04E2       OPLODSB
 0000:04E8       OPLODSW
 0000:0544       OPLOOP
 0000:0630       OPLSL
 0000:066E       OPLSS
 0000:0634       OPLTR
 0000:0531       OPLZ
 0000:048B       OPMOV
 0000:04BE       OPMOVSB
 0000:04C4       OPMOVSW
 0000:065A       OPMOVSX
 0000:0660       OPMOVZX
 0000:05A0       OPMUL
 0000:059C       OPNEG
 0000:0DEC       OPNONO
 0000:0493       OPNOP
 0000:0598       OPNOT
 0000:03E0       OPOR
 0000:0551       OPOUT
 0000:05F6       OPOUTS
 0000:05FB       OPOUTSB
 0000:0601       OPOUTSW
 0000:03DC       OPPOP
 0000:0607       OPPOPA
 0000:04AF       OPPOPF
 0000:08CC       OPPTR
 0000:03D7       OPPUSH
 0000:060C       OPPUSHA
 0000:04A9       OPPUSHF
 0000:05BE       OPRCL
 0000:05C2       OPRCR
 0000:0574       OPREP
 0000:056F       OPREPE
 0000:0569       OPREPNE
 0000:055E       OPREPNZ
 0000:0564       OPREPZ
 0000:04FA       OPRET
 0000:04FE       OPRETF
 0000:05B6       OPROL
 0000:05BA       OPROR
 0000:04B4       OPSAHF
 0000:05CA       OPSAL
 0000:05D2       OPSAR
 0000:03E7       OPSBB
 0000:04EE       OPSCASB
 0000:04F4       OPSCASW
 0000:06E4       OPSETA
 0000:06A9       OPSETB
 0000:06D1       OPSETBE
 0000:06BB       OPSETE
 0000:0736       OPSETG
 0000:071D       OPSETGE
 0000:070B       OPSETL
 0000:0723       OPSETLE
 0000:06D7       OPSETNA
 0000:06B5       OPSETNB
 0000:06C5       OPSETNE
 0000:0729       OPSETNG
 0000:0717       OPSETNL
 0000:06A3       OPSETNO
 0000:06FF       OPSETNP
 0000:06EE       OPSETNS
 0000:06CB       OPSETNZ
 0000:069E       OPSETO
 0000:06F4       OPSETP
 0000:06F9       OPSETPE
 0000:0705       OPSETPO
 0000:06E9       OPSETS
 0000:06C0       OPSETZ
 0000:0638       OPSGDT
 0000:05C6       OPSHL
 0000:0672       OPSHLD
 0000:05CE       OPSHR
 0000:063D       OPSIDT
 0000:0642       OPSLDT
 0000:0647       OPSMSW
 0000:0866       OPSSSEG
 0000:0584       OPSTC
 0000:0594       OPSTD
 0000:058C       OPSTI
 0000:06AE       OPSTNAE
 0000:06DD       OPSTNBE
 0000:0710       OPSTNGE
 0000:072F       OPSTNLE
 0000:04D6       OPSTOSB
 0000:04DC       OPSTOSW
 0000:064C       OPSTR
 0000:03F3       OPSUB
 0000:03D3       OPTAB
 0000:0481       OPTEST
 0000:0650       OPVERR
 0000:0655       OPVERW
 0000:04A4       OPWAIT
 0000:0693       OPXBTS
 0000:0486       OPXCHG
 0000:0521       OPXLAT
 0000:03FB       OPXOR
 0000:2DF3       OUTCEND
 0000:2DF0       OUTCH1
 0000:2DE2       OUTCHAR
 0000:2EF9       OUTEND
 0000:2EED       OUTLP
 0000:2EB6       OUTMC
 0000:2F21       OUTMEND
 0000:2F0B       OUTMG1
 0000:2F0F       OUTMG2
 0000:2F1F       OUTMG7
 0000:2EFC       OUTMSG
 0000:2676       OUTPUT
 0000:2688       OUTPUT2
 0000:2691       OUTPUT3
 0000:2EC8       OUTTEND1
 0000:2EE9       OUTTERM
 0000:2EAC       OUTTEXT
 0000:2EC0       OUTTLP1
 0000:2EE2       OUTTSKIP
 0000:26DB       P1
 0000:26E3       P2
 0000:26FD       P3
 0000:2704       P4
 0000:2735       P4A
 0000:27B5       P5
 0000:27BF       P7
 0000:1B4E       PARMBLK
 0000:1B50       PARMLIN
 0000:1A96       PATH
 0000:335E       PAUSE
 0000:336B       PAUSE1
 0000:336E       PAUSE2
 0000:277A       PBRET
 0000:282D       PDUMP
 0000:2830       PEND
 0000:2697       PROCEED
 0000:26A1       PSCLR
 0000:27A1       PSKIP
 0000:15B0       PTN
 0000:2805       PTRET
 0000:1FB4       QRETURN
 0000:1FCC       QUIT
 0000:1129       QUITPRG
 0000:02CE       R87ALL
 0000:02CE       R87CTR
 0000:02DA       R87DOFF
 0000:02D8       R87DSEG
 0000:02D6       R87IOFF
 0000:02D4       R87ISEG
 0000:1246       R87MSG
 0000:1300       R87MSG1
 0000:02D0       R87STAT
 0000:02DC       R87STK
 0000:02D2       R87TAG
 0000:3792       RB0
 0000:3795       RB1
 0000:37A3       RB2
 0000:37C0       RB3
 0000:37C9       RBEND
 0000:150A       RDMSG
 0000:112D       REDIN
 0000:112C       REDOUT
 0000:283D       REG
 0000:28DC       REG00
 0000:28EF       REG01
 0000:2948       REG01A
 0000:2959       REG01B
 0000:2961       REG01C
 0000:2965       REG01D
 0000:296A       REG01E
 0000:297B       REG02
 0000:298E       REG02A
 0000:2996       REG03
 0000:2999       REG04
 0000:299C       REG3
 0000:299E       REG4
 0000:0266       REGALL
 0000:0266       REGAX
 0000:0282       REGBAK
 0000:0270       REGBP
 0000:026C       REGBX
 0000:0278       REGCS
 0000:0268       REGCX
 0000:029E       REGDB
 0000:2937       REGDEB
 0000:0274       REGDI
 0000:027C       REGDS
 0000:026A       REGDX
 0000:0276       REGES
 0000:0280       REGFLAG
 0000:027E       REGIP
 0000:1203       REGMSG
 0000:0272       REGSI
 0000:4EAD       REGSIZE
 0000:28D9       REGSKIP
 0000:026E       REGSP
 0000:027A       REGSS
 0000:02B0       REGTRAN
 0000:02CC       REGTYPE
 0000:519B       REM1
 0000:51AE       REM2
 0000:51B0       REM3
 0000:377D       REMBRK
 0000:519A       REMSPAC
 0000:1F74       REPEAT
 0000:34B4       RESTINT
 0000:37FF       RESTREG
 0000:3504       RESTSS
 0000:1B3A       RETADDR
 0000:1123       RETCODE
 0000:1B3E       RETFLAG
 0000:1B40       RETLOC
 0000:1B3A       RETOFF
 0000:1B3C       RETSEG
 0000:2850       RF1
 0000:285A       RF2
 0000:2896       RF3
 0000:289B       RF4
 0000:28AB       RF5
 0000:28B2       RFBAD
 0000:28CF       RFDONE
 0000:28C8       RFSET
 0000:28D2       RFSKIP
 0000:457F       RMBAD
 0000:4584       RMDONE
 0000:4587       RMFIN
 0000:4536       RMLOOP
 0000:4548       RMSET
 0000:4555       RMSET1
 0000:456E       RMSET2
 0000:4575       RMSET3
 0000:1172       RMTAB
 0000:08BE       ROBAH
 0000:08B2       ROBAL
 0000:08C7       ROBBH
 0000:08BB       ROBBL
 0000:08C1       ROBCH
 0000:08B5       ROBCL
 0000:08C4       ROBDH
 0000:08B8       ROBDL
 0000:08B2       ROP1
 0000:0888       ROP2
 0000:0888       ROPAX
 0000:0897       ROPBP
 0000:0891       ROPBX
 0000:08A3       ROPCS
 0000:088B       ROPCX
 0000:089D       ROPDI
 0000:08A9       ROPDS
 0000:088E       ROPDX
 0000:08A0       ROPES
 0000:08AF       ROPF
 0000:08AC       ROPIP
 0000:089A       ROPSI
 0000:0894       ROPSP
 0000:08A0       ROPSREG
 0000:08A6       ROPSS
 0000:4EC7       RSBAD
 0000:4ECD       RSDONE
 0000:4ECB       RSWORD
 0000:1BBD       RUBOUT
 0000:614D       S8087
 0000:5FCE       SAVEALL
 0000:1B7C       SAVEIP
 0000:1170       SAVEOFF
 0000:37D4       SAVEREG
 0000:1B38       SBUFSEG
 0000:51B2       SCANCOM
 0000:4C92       SCANEA
 0000:3C01       SCANMEN
 0000:51BA       SCANSEA
 0000:51C2       SCBYTE
 0000:51C5       SCBYTE1
 0000:51D8       SCBYTE2
 0000:51DC       SCBYTE3
 0000:51DF       SCBYTE4
 0000:1B68       SCRADDR
 0000:1B6A       SCURSOR
 0000:4CA9       SEA0
 0000:4CAC       SEA1
 0000:4D9A       SEA10
 0000:4D9D       SEA11
 0000:4DC1       SEA11B
 0000:4DC9       SEA12BP
 0000:4DCE       SEA12BX
 0000:4DD3       SEA13
 0000:4DEB       SEA14
 0000:4DEE       SEA15
 0000:4E1D       SEA16
 0000:4E15       SEA16BP
 0000:4E1A       SEA16BX
 0000:4E35       SEA17
 0000:4E38       SEA18
 0000:4E53       SEA19
 0000:4E50       SEA19DI
 0000:4E4B       SEA19SI
 0000:4CC4       SEA1A
 0000:4CD4       SEA1B
 0000:4E63       SEA20
 0000:4E0F       SEA20DI
 0000:4E09       SEA20SI
 0000:4E7A       SEA21
 0000:4E94       SEA22
 0000:4E8C       SEA22BP
 0000:4E91       SEA22BX
 0000:4CF1       SEA3
 0000:4CE9       SEA3BP
 0000:4CEE       SEA3BX
 0000:4D09       SEA4
 0000:4D0C       SEA5
 0000:4D32       SEA5B
 0000:4D43       SEA6
 0000:4D40       SEA6DI
 0000:4D3B       SEA6SI
 0000:4D5B       SEA7
 0000:4D5E       SEA8
 0000:4D6B       SEA8B
 0000:4D82       SEA9
 0000:4CE3       SEA9DI
 0000:4CDD       SEA9SI
 0000:1B7A       SEABX
 0000:4EA8       SEADONE
 0000:4EA4       SEAERR
 0000:29A5       SEARCH
 0000:1130       SEGFLAG
 0000:5508       SERR
 0000:370A       SETBRK
 0000:5FBF       SETDREG
 0000:56B6       SETEXTR
 0000:3459       SETINT
 0000:60C2       SETSEGS
 0000:34DF       SETSS
 0000:341E       SETTRAP
 0000:3205       SH1
 0000:324E       SH2
 0000:0003  Abs  SHARERETRY
 0000:0003  Abs  SHARETICKS
 0000:320C       SHBEG
 0000:3240       SHDEB
 0000:31FB       SHDO
 0000:325B       SHDONE
 0000:31DF       SHELL
 0000:1488       SHMSG
 0000:3242       SHRET
 0000:1B36       SHRINK
 0000:6032       SI1
 0000:609D       SI10
 0000:60A8       SI11
 0000:603C       SI2
 0000:604A       SI3
 0000:6054       SI4
 0000:605E       SI5
 0000:6069       SI6
 0000:6073       SI7
 0000:607B       SI8
 0000:6097       SI9
 0000:60BF       SIBRK
 0000:60AB       SISET
 0000:60BD       SITRACE
 0000:1B72       SIZEHI
 0000:1B74       SIZELO
 0000:60E0       SIZEMAX
 0000:610E       SIZEMIN
 0000:17B2       SIZEOVR
 0000:601B       SKIPINS
 0000:34AE       SKIPSINT
 0000:610D       SMAXEND
 0000:610A       SMAXSKP
 0000:3C0D       SMCHK
 0000:3C71       SMENEND
 0000:3C5D       SMFND1
 0000:3C69       SMFND2
 0000:3C6C       SMFND3
 0000:3C58       SMFOUND
 0000:6131       SMINEND
 0000:3C22       SMINIT
 0000:612F       SMINOK
 0000:3C3A       SMLOOP
 0000:3C4E       SMLP1
 0000:1BBB       SMODE
 0000:1952       SPACE7
 0000:1BB9       SPAGE
 0000:2A19       SRCHEND
 0000:29D5       SRCHLP
 0000:2A15       SRCHNX
 0000:2A14       SRCHSK
 0000:351B       SS1
 0000:352A       SS2
 0000:3875       SSDONE
 0000:60DE       SSEGEND
 0000:386B       SSLOOP
 0000:3846       SSSTART
 0000:351A       SSTEP
 0000:0100       START
 0000:018A       START1
 0000:1B5C       STKLOC
 0000:1BAE       STKPTR
 0000:1BB0       STKSEG
 0000:05DC  Abs  STKSIZ
 0000:1125       STPFLAG
 0000:31CA       SWAP
 0000:31DB       SWAPEND
 0000:3831       SWAPSCR
 0000:5500       SYNERR
 0000:11D3       SYNTAX
 0000:2A57       T1
 0000:2A5F       T2
 0000:2A79       T3
 0000:2A80       T4
 0000:2AA7       T4A
 0000:2B2F       T4B
 0000:3A2E       TAB10
 0000:3A32       TAB10A
 0000:3A16       TAB15
 0000:39E6       TAB17
 0000:39FE       TAB18
 7777:013B  Abs  TCB$ASI
 7777:013A  Abs  TCB$CA
 7777:0146  Abs  TCB$EB
 7777:0144  Abs  TCB$EBP
 7777:013D  Abs  TCB$EF
 7777:0142  Abs  TCB$ER
 7777:0141  Abs  TCB$HB
 7777:0136  Abs  TCB$HDR
 7777:013C  Abs  TCB$IQ
 7777:0140  Abs  TCB$KP
 7777:013E  Abs  TCB$TCP
 7777:0803  Abs  TCB$WRAP
 7777:028A  Abs  TCB%BLEN
 7777:05A4  Abs  TCB%CBOT
 7777:0594  Abs  TCB%CP0A
 7777:059A  Abs  TCB%CP3F
 7777:059C  Abs  TCB%DBUF
 7777:05AA  Abs  TCB%DLEN
 7777:0189  Abs  TCB%EBUF
 7777:0288  Abs  TCB%ECOL
 7777:05B5  Abs  TCB%FLGS
 7777:05B4  Abs  TCB%INSF
 7777:05A7  Abs  TCB%LREF
 7777:05AC  Abs  TCB%LTC
 7777:05A8  Abs  TCB%MAXC
 7777:05A9  Abs  TCB%MAXL
 7777:05B0  Abs  TCB%NMXB
 7777:05A6  Abs  TCB%NSTLN
 7777:0592  Abs  TCB%RP0A
 7777:0598  Abs  TCB%RP3F
 7777:0590  Abs  TCB%RS0A
 7777:0596  Abs  TCB%RS3F
 7777:038F  Abs  TCB%SB0A
 7777:0604  Abs  TCB%SB3F
 7777:05A5  Abs  TCB%STCL
 7777:05B2  Abs  TCB%STGC
 7777:05AE  Abs  TCB%TTC
 7777:07E4  Abs  TCB03B8
 7777:07E5  Abs  TCB03BF
 7777:02D3  Abs  TCB13ONCE
 7777:02CA  Abs  TCB15AX
 7777:02CC  Abs  TCB15CX
 7777:02DA  Abs  TCB15SUPR
 7777:037E  Abs  TCB24NEST
 7777:0806  Abs  TCB28CNT
 7777:0808  Abs  TCB28TIMER
 7777:080B  Abs  TCB3C2
 7777:00AE  Abs  TCB87SAV
 7777:0602  Abs  TCBACTSEG
 7777:0117  Abs  TCBALT999
 7777:0772  Abs  TCBALTAC
 7777:0773  Abs  TCBALTACF
 7777:0774  Abs  TCBALTDN
 7777:0110  Abs  TCBALTNUM
 7777:0801  Abs  TCBANSI
 7777:00C6  Abs  TCBAPV0A
 7777:00CA  Abs  TCBAPV0B
 7777:00CE  Abs  TCBAPV0C
 7777:00D2  Abs  TCBAPV0D
 7777:00D6  Abs  TCBAPV0E
 7777:00DA  Abs  TCBAPV0F
 7777:00DE  Abs  TCBAPV70
 7777:00E2  Abs  TCBAPV71
 7777:00E6  Abs  TCBAPV72
 7777:00EA  Abs  TCBAPV73
 7777:00EE  Abs  TCBAPV74
 7777:00F2  Abs  TCBAPV75
 7777:00F6  Abs  TCBAPV76
 7777:00FA  Abs  TCBAPV77
 7777:07D0  Abs  TCBATTEND
 7777:0711  Abs  TCBAUTOE
 7777:0070  Abs  TCBAUXBT
 7777:0071  Abs  TCBAUXCT
 7777:012E  Abs  TCBAUXTM
 7777:00BE  Abs  TCBBASEG
 7777:0760  Abs  TCBBATNM
 7777:05DD  Abs  TCBBAUD
 7777:02CE  Abs  TCBBBSY
 7777:0376  Abs  TCBBDBWF
 7777:0014  Abs  TCBBEGAD
 7777:07E9  Abs  TCBBPCNT
 7777:006B  Abs  TCBBRK
 7777:05B6  Abs  TCBBRKFG
 7777:0766  Abs  TCBCACER
 7777:00BD  Abs  TCBCAMON
 7777:0383  Abs  TCBCDAY
 7777:005E  Abs  TCBCDBPC
 7777:005C  Abs  TCBCDBPF
 7777:007F  Abs  TCBCDFT
 7777:0061  Abs  TCBCDRIV
 7777:037F  Abs  TCBCHDR
 7777:0362  Abs  TCBCHN13
 7777:078B  Abs  TCBCHN8
 7777:0776  Abs  TCBCHN9
 7777:007A  Abs  TCBCLASS
 7777:0816  Abs  TCBCLKDEV
 7777:0080  Abs  TCBCMAP
 7777:0124  Abs  TCBCMODE
 7777:07B0  Abs  TCBCNTXPT
 7777:0036  Abs  TCBCOLS
 7777:037B  Abs  TCBCON417
 7777:05D0  Abs  TCBCONDD
 7777:081A  Abs  TCBCONDEV
 7777:0188  Abs  TCBCONFG
 7777:02DB  Abs  TCBCONLY
 7777:07B5  Abs  TCBCOUNT
 7777:003E  Abs  TCBCPOS
 7777:076D  Abs  TCBCRIT
 7777:02AA  Abs  TCBCRIT24
 7777:07E3  Abs  TCBCRTIO
 7777:0088  Abs  TCBCTXP
 7777:004E  Abs  TCBCTYP
 7777:037C  Abs  TCBD40F
 7777:02CF  Abs  TCBDBSY
 7777:0377  Abs  TCBDBWAX
 7777:0379  Abs  TCBDBWCX
 7777:05D8  Abs  TCBDCOFS
 7777:05DA  Abs  TCBDCOL
 7777:07F4  Abs  TCBDDJMP1
 7777:07F9  Abs  TCBDDJMP2
 7777:0830  Abs  TCBDDPF
 7777:0182  Abs  TCBDEVHDR
 7777:0802  Abs  TCBDIDKEY
 7777:0824  Abs  TCBDINFO
 7777:05D4  Abs  TCBDLOFS
 7777:05D6  Abs  TCBDLSEG
 7777:0186  Abs  TCBDNUM
 7777:080E  Abs  TCBDPBPF
 7777:0820  Abs  TCBDPBPO
 7777:075C  Abs  TCBDPMI
 7777:075E  Abs  TCBDPMISEL
 7777:0062  Abs  TCBDTA
 7777:0125  Abs  TCBEGA
 7777:088C  Abs  TCBEGAPAL
 7777:00AC  Abs  TCBEMS
 7777:07F2  Abs  TCBEMSSEG
 7777:0016  Abs  TCBENDAD
 7777:0809  Abs  TCBEQUIP
 7777:0020  Abs  TCBERRCOD
 7777:00C0  Abs  TCBERRVOL
 7777:07B7  Abs  TCBEXEC3D
 7777:0828  Abs  TCBFCBPTR
 7777:075A  Abs  TCBFLIMIT
 7777:080A  Abs  TCBFLUSH
 7777:011E  Abs  TCBFSAVR
 7777:079F  Abs  TCBFWAKE
 7777:0387  Abs  TCBHDL24
 7777:02AB  Abs  TCBHOLD
 7777:011A  Abs  TCBI9FLG
 7777:0118  Abs  TCBI9SEG
 7777:002C  Abs  TCBIBASE
 7777:002E  Abs  TCBIBSIZ
 7777:0010  Abs  TCBID
 7777:02D2  Abs  TCBIN10
 7777:0804  Abs  TCBINMOS
 7777:02D0  Abs  TCBIRETRY
 7777:076C  Abs  TCBIRQCNT
 7777:07D4  Abs  TCBIRQPN
 7777:07E0  Abs  TCBIRQSEC
 7777:07EF  Abs  TCBKBANHI
 7777:07EE  Abs  TCBKBANLOW
 7777:07EC  Abs  TCBKBANSI
 7777:0102  Abs  TCBKBAX
 7777:02D8  Abs  TCBKBCMD
 7777:00FE  Abs  TCBKBCNT
 7777:0113  Abs  TCBKBCTL
 7777:0104  Abs  TCBKBCX
 7777:0100  Abs  TCBKBFCT
 7777:00FF  Abs  TCBKBFST
 7777:0101  Abs  TCBKBMAX
 7777:07F0  Abs  TCBKBOFF
 7777:02D7  Abs  TCBKBRATE
 7777:02D9  Abs  TCBKBSTG
 7777:0106  Abs  TCBKBTCK
 7777:0108  Abs  TCBKEYRDY
 7777:0032  Abs  TCBKSHF2
 7777:0031  Abs  TCBKSHFT
 7777:0112  Abs  TCBKTGGL
 7777:07AB  Abs  TCBL40
 7777:07AA  Abs  TCBL43
 7777:0090  Abs  TCBLAGCNT
 7777:082F  Abs  TCBLASTDRV
 7777:0114  Abs  TCBLASTKY
 0000:0E8D  Abs  TCBLEN
 7777:0134  Abs  TCBLLSER
 7777:075B  Abs  TCBLOCK
 7777:02B2  Abs  TCBLOCKER
 7777:0030  Abs  TCBLOOP
 7777:0076  Abs  TCBLPTXL
 7777:0116  Abs  TCBLSCAN
 7777:07EA  Abs  TCBLSTTL
 7777:080C  Abs  TCBMBPF
 7777:00B2  Abs  TCBMCOUNT
 7777:08B1  Abs  TCBMINSTK
 7777:0094  Abs  TCBMMHDL
 7777:009C  Abs  TCBMMPGS
 7777:0034  Abs  TCBMODE
 7777:011B  Abs  TCBMOSKEY
 7777:070A  Abs  TCBMOUSE
 7777:0706  Abs  TCBMPORT
 7777:02A6  Abs  TCBMREADY
 7777:0708  Abs  TCBMTIMER
 7777:0012  Abs  TCBNCADR
 7777:0060  Abs  TCBNDRIV
 7777:05B7  Abs  TCBNEST
 7777:0361  Abs  TCBNEST13
 7777:078A  Abs  TCBNEST8
 7777:0775  Abs  TCBNEST9
 7777:08A0  Abs  TCBNO24
 7777:011F  Abs  TCBNOGET
 7777:006C  Abs  TCBNTRY
 7777:010C  Abs  TCBNXTDD
 7777:02D4  Abs  TCBOCLASS
 7777:02D5  Abs  TCBODRIV
 7777:0068  Abs  TCBOLDMBPF
 7777:0066  Abs  TCBOLDPSP
 7777:0051  Abs  TCBOMODE
 7777:07B8  Abs  TCBOPEN60
 7777:05B8  Abs  TCBORGSP
 7777:02A2  Abs  TCBORIG1C
 7777:029E  Abs  TCBORIG8
 7777:0035  Abs  TCBPAGE
 7777:0050  Abs  TCBPAL
 7777:07E2  Abs  TCBPAM
 7777:07AD  Abs  TCBPAMFG
 7777:0290  Abs  TCBPARM2E
 7777:070F  Abs  TCBPARNT
 7777:0187  Abs  TCBPCNT
 7777:003A  Abs  TCBPGLN
 7777:003C  Abs  TCBPGST
 7777:001C  Abs  TCBPOLL
 7777:05DB  Abs  TCBPORT
 7777:038B  Abs  TCBPOST
 7777:0600  Abs  TCBPRESEG
 7777:0021  Abs  TCBPRGNM
 7777:0018  Abs  TCBPRI
 7777:07AE  Abs  TCBPRIPN
 7777:00B0  Abs  TCBPRITM
 7777:0127  Abs  TCBPRNDX
 7777:0128  Abs  TCBPRPRT
 7777:011D  Abs  TCBPRT61
 7777:02B1  Abs  TCBPSCAN
 7777:02DE  Abs  TCBPSP
 0000:02DE  Abs  TCBPSPOFF
 7777:0122  Abs  TCBPTMR
 7777:07FE  Abs  TCBREBOOT
 7777:00C4  Abs  TCBRETC
 7777:0037  Abs  TCBROWS
 7777:02D6  Abs  TCBRSTOK
 7777:07A1  Abs  TCBSAFE28
 7777:0385  Abs  TCBSAV24
 7777:0038  Abs  TCBSCLN
 7777:010E  Abs  TCBSCRDD
 7777:081E  Abs  TCBSECSIZ
 7777:0812  Abs  TCBSFTPTR
 7777:0759  Abs  TCBSHARE
 7777:07A0  Abs  TCBSIORB
 7777:02B3  Abs  TCBSLCNT
 7777:0019  Abs  TCBSLICE
 7777:008A  Abs  TCBSP
 7777:0132  Abs  TCBSPLTC
 7777:0072  Abs  TCBSPLTM
 7777:0130  Abs  TCBSPLTP
 7777:0074  Abs  TCBSPOOL
 7777:0126  Abs  TCBSPSKP
 7777:05BA  Abs  TCBSREG
 7777:0E8D  Abs  TCBSTACK
 7777:0000  Abs  TCBSTART
 7777:001B  Abs  TCBSTAT
 7777:07BC  Abs  TCBSTATE
 7777:076E  Abs  TCBSTATION
 7777:008C  Abs  TCBSTKP
 7777:008E  Abs  TCBSVSP
 7777:07E7  Abs  TCBSWFLG
 7777:07E8  Abs  TCBSWITCH
 7777:07B2  Abs  TCBT3X4
 7777:0008  Abs  TCBTCBPN
 7777:000A  Abs  TCBTCBPP
 7777:07E6  Abs  TCBTCCNT
 7777:07B3  Abs  TCBTCHIGH
 7777:07B4  Abs  TCBTCLOW
 7777:02DD  Abs  TCBTCTND
 7777:02DC  Abs  TCBTCTST
 7777:02E0  Abs  TCBTEXT2E
 7777:005A  Abs  TCBTFBPF
 7777:012A  Abs  TCBTOAX
 7777:012C  Abs  TCBTOCX
 7777:0389  Abs  TCBTPFRM
 7777:011C  Abs  TCBTRAPCD
 7777:028C  Abs  TCBTSK38
 7777:037D  Abs  TCBTSLNST
 7777:076F  Abs  TCBTSRFLG
 7777:006E  Abs  TCBTTRY
 7777:0001  Abs  TCBTYPE
 7777:07A6  Abs  TCBUNREG
 7777:070B  Abs  TCBUPOLL
 7777:007B  Abs  TCBUSER
 7777:07BE  Abs  TCBUSERAREA
 7777:02C8  Abs  TCBVERSN
 7777:006A  Abs  TCBVFLG
 7777:0770  Abs  TCBVIDAD
 7777:07CF  Abs  TCBVIDEO
 7777:0054  Abs  TCBVIDH1
 7777:0056  Abs  TCBVIDP1
 7777:07A2  Abs  TCBVIDSET
 7777:0058  Abs  TCBVIDW2
 7777:00A4  Abs  TCBVMHDL
 7777:00A8  Abs  TCBVMPGS
 7777:0053  Abs  TCBVRAM
 7777:0120  Abs  TCBVRTIM
 7777:001A  Abs  TCBWAIT
 7777:07FF  Abs  TCBWATCH
 7777:00BA  Abs  TCBWINFO
 7777:0052  Abs  TCBWINPO
 7777:07E1  Abs  TCBWPEND
 7777:00B6  Abs  TCBWTAX
 7777:00B8  Abs  TCBWTCX
 7777:00BC  Abs  TCBWTFLG
 7777:085C  Abs  TCB_COM_HOLD
 7777:02C4  Abs  TCB_MACHINE_ID
 7777:02B4  Abs  TCB_MACHINE_NAME
 7777:0764  Abs  TCB_MALLOC_MARK
 7777:02C6  Abs  TCB_MALLOC_STRATEGY
 0000:1B4C       TCOUNT
 0000:18ED       TEMPBUF
 0000:2B8E       TEND
 0000:35EE       TERM
 0000:3615       TERM1
 0000:3622       TERM2
 0000:15FD       TMBRK
 0000:5561       TOFLAG
 7777:058F  Abs  TOPSB0A
 7777:0706  Abs  TOPSB3F
 0000:2A22       TRACE
 0000:2B63       TRET
 0000:2B88       TSKIP
 0000:0106       TSL
 0000:1B22       UASMLOC
 0000:50F7       UDINIT
 0000:5102       UDISP
 0000:5090       UH1
 0000:50A3       UH2
 0000:50B3       UH3
 0000:50D0       UH4
 0000:50E6       UH5
 0000:50DE       UHCHK
 0000:50D7       UHDONE
 0000:510A       UHEND
 0000:5073       UHLOOP
 0000:50DB       UHNEXT
 0000:50C1       UHSET
 0000:2B95       UNASM
 0000:2BB3       UNASM1
 0000:2BBA       UNASM2
 0000:5069       USERHEX
 0000:1B48       USERPRG
 0000:112A       USRTERM
 0000:1B70       VALBX
 0000:1B6E       VALDI
 0000:6132       VALIDOP
 0000:1B6C       VALSI
 0000:3C7D       VALTYPE
 0000:41CE       VDIR1
 0000:41B9       VDIRECT
 0000:33D9       VER1
 0000:33F5       VER2
 0000:33D4       VERERR
 0000:33F7       VEREXIT
 0000:33A8       VERIFY
 0000:1BBA       VMODE
 0000:6141       VOPGOOD
 0000:3C96       VTEND
 0000:1677       WBYTE
 0000:2D6D       WFILERR
 0000:2C44       WLOOP
 0000:2C51       WNEXT
 0000:1622       WPERR
 0000:166E       WRBYTES
 0000:2D3F       WRERR
 0000:2D77       WREXIT
 0000:2BCC       WRITE
 0000:2BF2       WRITE0
 0000:2BFF       WRITE0A
 0000:2C02       WRITE1
 0000:2C13       WRITE1A
 0000:2C8C       WRITE1B
 0000:2C9B       WRITE1C
 0000:2CAF       WRITE1D
 0000:2CB3       WRITE1E
 0000:2CC1       WRITE1F
 0000:2CE5       WRITE1G
 0000:2D06       WRITE1H
 0000:2D0C       WRITE1I
 0000:2D14       WRITE2
 0000:2D44       WRITE3
 0000:2D47       WRITE4
 0000:2D5C       WRITEDO
 0000:2D69       WRITEOK
 0000:1B30       WRLOC
 0000:1680       WRNAME
 0000:2D75       WROK

  Address         Publics by Value

 0000:0003  Abs  SHARERETRY
 0000:0003  Abs  SHARETICKS
 0000:0026  Abs  HELPLEN
 0000:0027  Abs  EXELEN
 0000:0027  Abs  CMDLN
 0000:0100       START
 0000:0106       TSL
 0000:0189       ONMOS
 0000:018A       START1
 0000:01A7       MOSOK
 0000:01B5       CPUMSG
 0000:01CA       EXETAB
 0000:0218       EXEEND
 0000:0218       CMDTAB
 0000:0266       CMDEND
 0000:0266       REGALL
 0000:0266       REGAX
 0000:0268       REGCX
 0000:026A       REGDX
 0000:026C       REGBX
 0000:026E       REGSP
 0000:0270       REGBP
 0000:0272       REGSI
 0000:0274       REGDI
 0000:0276       REGES
 0000:0278       REGCS
 0000:027A       REGSS
 0000:027C       REGDS
 0000:027E       REGIP
 0000:0280       REGFLAG
 0000:0282       REGBAK
 0000:029E       REGDB
 0000:02B0       REGTRAN
 0000:02CC       REGTYPE
 0000:02CE       R87CTR
 0000:02CE       R87ALL
 0000:02D0       R87STAT
 0000:02D2       R87TAG
 0000:02D4       R87ISEG
 0000:02D6       R87IOFF
 0000:02D8       R87DSEG
 0000:02DA       R87DOFF
 0000:02DC       R87STK
 0000:02DE  Abs  TCBPSPOFF
 0000:037C       MAXMEM
 0000:037E       FULLLOAD
 0000:037F       ALLIAS
 0000:03D3       OPTAB
 0000:03D3       OPADD
 0000:03D7       OPPUSH
 0000:03DC       OPPOP
 0000:03E0       OPOR
 0000:03E3       OPADC
 0000:03E7       OPSBB
 0000:03EB       OPAND
 0000:03EF       OPDAA
 0000:03F3       OPSUB
 0000:03F7       OPDAS
 0000:03FB       OPXOR
 0000:03FF       OPAAA
 0000:0403       OPCMP
 0000:0407       OPAAS
 0000:040B       OPINC
 0000:040F       OPJO
 0000:0412       OPJNO
 0000:0416       OPJC
 0000:0419       OPJB
 0000:041C       OPJNAE
 0000:0421       OPJNC
 0000:0425       OPJNB
 0000:0429       OPJAE
 0000:042D       OPJZ
 0000:0430       OPJE
 0000:0433       OPJNZ
 0000:0437       OPJNE
 0000:043B       OPJNA
 0000:043F       OPJBE
 0000:0443       OPJA
 0000:0446       OPJNBE
 0000:044B       OPJS
 0000:044E       OPJNS
 0000:0452       OPJPE
 0000:0456       OPJP
 0000:0459       OPJPO
 0000:045D       OPJNP
 0000:0461       OPJNGE
 0000:0466       OPJL
 0000:0469       OPJGE
 0000:046D       OPJNL
 0000:0471       OPJLE
 0000:0475       OPJNG
 0000:0479       OPJG
 0000:047C       OPJNLE
 0000:0481       OPTEST
 0000:0486       OPXCHG
 0000:048B       OPMOV
 0000:048F       OPLEA
 0000:0493       OPNOP
 0000:0497       OPCBW
 0000:049B       OPCWD
 0000:049F       OPCALL
 0000:04A4       OPWAIT
 0000:04A9       OPPUSHF
 0000:04AF       OPPOPF
 0000:04B4       OPSAHF
 0000:04B9       OPLAHF
 0000:04BE       OPMOVSB
 0000:04C4       OPMOVSW
 0000:04CA       OPCMPSB
 0000:04D0       OPCMPSW
 0000:04D6       OPSTOSB
 0000:04DC       OPSTOSW
 0000:04E2       OPLODSB
 0000:04E8       OPLODSW
 0000:04EE       OPSCASB
 0000:04F4       OPSCASW
 0000:04FA       OPRET
 0000:04FE       OPRETF
 0000:0503       OPLES
 0000:0507       OPLDS
 0000:050B       OPINT
 0000:050F       OPINTO
 0000:0514       OPIRET
 0000:0519       OPAAM
 0000:051D       OPAAD
 0000:0521       OPXLAT
 0000:0526       OPESC
 0000:052A       OPLNZ
 0000:0531       OPLZ
 0000:0537       OPLNE
 0000:053E       OPLE
 0000:0544       OPLOOP
 0000:0549       OPJCXZ
 0000:054E       OPIN
 0000:0551       OPOUT
 0000:0555       OPJMP
 0000:0559       OPLOCK
 0000:055E       OPREPNZ
 0000:0564       OPREPZ
 0000:0569       OPREPNE
 0000:056F       OPREPE
 0000:0574       OPREP
 0000:0578       OPHLT
 0000:057C       OPCMC
 0000:0580       OPCLC
 0000:0584       OPSTC
 0000:0588       OPCLI
 0000:058C       OPSTI
 0000:0590       OPCLD
 0000:0594       OPSTD
 0000:0598       OPNOT
 0000:059C       OPNEG
 0000:05A0       OPMUL
 0000:05A4       OPIMUL
 0000:05A9       OPDIV
 0000:05AD       OPIDIV
 0000:05B2       OPDEC
 0000:05B6       OPROL
 0000:05BA       OPROR
 0000:05BE       OPRCL
 0000:05C2       OPRCR
 0000:05C6       OPSHL
 0000:05CA       OPSAL
 0000:05CE       OPSHR
 0000:05D2       OPSAR
 0000:05D6       OPBOUND
 0000:05D6       OP186
 0000:05DC  Abs  STKSIZ
 0000:05DC       OPENTER
 0000:05E2       OPINS
 0000:05E6       OPINSB
 0000:05EB       OPINSW
 0000:05F0       OPLEAVE
 0000:05F6       OPOUTS
 0000:05FB       OPOUTSB
 0000:0601       OPOUTSW
 0000:0607       OPPOPA
 0000:060C       OPPUSHA
 0000:0612       OP286
 0000:0612       OPARPL
 0000:0617       OPCLTS
 0000:061C       OPLGDT
 0000:0621       OPLIDT
 0000:0626       OPLLDT
 0000:062B       OPLMSW
 0000:0630       OPLSL
 0000:0634       OPLTR
 0000:0638       OPSGDT
 0000:063D       OPSIDT
 0000:0642       OPSLDT
 0000:0647       OPSMSW
 0000:064C       OPSTR
 0000:0650       OPVERR
 0000:0655       OPVERW
 0000:065A       OP386
 0000:065A       OPMOVSX
 0000:0660       OPMOVZX
 0000:0666       OPLFS
 0000:066A       OPLGS
 0000:066E       OPLSS
 0000:0672       OPSHLD
 0000:0677       OPBSF
 0000:067B       OPBSR
 0000:067F       OPBT
 0000:0682       OPBTC
 0000:0686       OPBTR
 0000:068A       OPBTS
 0000:068E       OPIBTS
 0000:0693       OPXBTS
 0000:0698       OPJECXZ
 0000:069E       OPSETO
 0000:06A3       OPSETNO
 0000:06A9       OPSETB
 0000:06AE       OPSTNAE
 0000:06B5       OPSETNB
 0000:06BB       OPSETE
 0000:06C0       OPSETZ
 0000:06C5       OPSETNE
 0000:06CB       OPSETNZ
 0000:06D1       OPSETBE
 0000:06D7       OPSETNA
 0000:06DD       OPSTNBE
 0000:06E4       OPSETA
 0000:06E9       OPSETS
 0000:06EE       OPSETNS
 0000:06F4       OPSETP
 0000:06F9       OPSETPE
 0000:06FF       OPSETNP
 0000:0705       OPSETPO
 0000:070B       OPSETL
 0000:0710       OPSTNGE
 0000:0717       OPSETNL
 0000:071D       OPSETGE
 0000:0723       OPSETLE
 0000:0729       OPSETNG
 0000:072F       OPSTNLE
 0000:0736       OPSETG
 0000:073B       OPFLD
 0000:073B       OP87
 0000:073F       OPFST
 0000:0743       OPFSTP
 0000:0748       OPFXCH
 0000:074D       OPFCOM
 0000:0752       OPFCOMP
 0000:0758       OPFCMPP
 0000:075F       OPFTST
 0000:0764       OPFXAM
 0000:0769       OPFADD
 0000:076E       OPFSUB
 0000:0773       OPFMUL
 0000:0778       OPFDIV
 0000:077D       OPFSQRT
 0000:0783       OPFSCAL
 0000:078A       OPFREM
 0000:078F       OPFRND
 0000:0797       OPFXTR
 0000:079F       OPFABS
 0000:07A4       OPCHS
 0000:07A9       OPFPTAN
 0000:07AF       OPFPATN
 0000:07B6       OPF2XM1
 0000:07BC       OPFYL2X
 0000:07C2       OPFYXP1
 0000:07CA       OPFLDZ
 0000:07CF       OPFLD1
 0000:07D4       OPFLDP1
 0000:07DA       OPFLL2T
 0000:07E1       OPFLL2E
 0000:07E8       OPFLLG2
 0000:07EF       OPFLLN2
 0000:07F6       OPFINIT
 0000:07FC       OPFENI
 0000:0801       OPFDISI
 0000:0807       OPFLDCW
 0000:080D       OPFSTCW
 0000:0813       OPFCLEX
 0000:0819       OPFSENV
 0000:0820       OPFLENV
 0000:0827       OPFSAVE
 0000:082D       OPFRSTR
 0000:0834       OPFINCS
 0000:083B       OPFDECS
 0000:0842       OPFFREE
 0000:0848       OPFNOP
 0000:084D       OPFWAIT
 0000:0853       OP287
 0000:0853       OPFSPM
 0000:085A       OPCSSEG
 0000:085E       OPDSSEG
 0000:0862       OPESSEG
 0000:0866       OPSSSEG
 0000:086A       OPBAD
 0000:086E       OPDB
 0000:0871       OP
 0000:0872       MODBYTE
 0000:087B       MODWORD
 0000:0884       MODFAR
 0000:0888       ROP2
 0000:0888       ROPAX
 0000:088B       ROPCX
 0000:088E       ROPDX
 0000:0891       ROPBX
 0000:0894       ROPSP
 0000:0897       ROPBP
 0000:089A       ROPSI
 0000:089D       ROPDI
 0000:08A0       ROPSREG
 0000:08A0       ROPES
 0000:08A3       ROPCS
 0000:08A6       ROPSS
 0000:08A9       ROPDS
 0000:08AC       ROPIP
 0000:08AF       ROPF
 0000:08B2       ROP1
 0000:08B2       ROBAL
 0000:08B5       ROBCL
 0000:08B8       ROBDL
 0000:08BB       ROBBL
 0000:08BE       ROBAH
 0000:08C1       ROBCH
 0000:08C4       ROBDH
 0000:08C7       ROBBH
 0000:08CC       OPPTR
 0000:0CCC       OP80
 0000:0CEC       OP81
 0000:0D0C       OP8283
 0000:0D2C       OPD0D1
 0000:0D4C       OPD2D3
 0000:0D6C       OPF6
 0000:0D8C       OPF7
 0000:0DAC       OPFE
 0000:0DCC       OPFF
 0000:0DEC       OPNONO
 0000:0DF2       HELPTAB
 0000:0E8D  Abs  TCBLEN
 0000:1110       HEXTAB
 0000:1120       CPU
 0000:1121       MCPU
 0000:1122       NOTDONE
 0000:1123       RETCODE
 0000:1124       BPFLAG
 0000:1125       STPFLAG
 0000:1126       GOFLAG
 0000:1127       NFILE
 0000:1128       BRK
 0000:1129       QUITPRG
 0000:112A       USRTERM
 0000:112B       BFLAG
 0000:112C       REDOUT
 0000:112D       REDIN
 0000:112E       MAINCON
 0000:112F       ISLOAD
 0000:1130       SEGFLAG
 0000:1131       EXEFLAG
 0000:1132       ALLMEM
 0000:1134       MAP1718
 0000:114E       MAP10
 0000:1152       MAP10A
 0000:1170       SAVEOFF
 0000:1172       RMTAB
 0000:117B       CHIP
 0000:11A2       NOMATH
 0000:11A5       MCHIP
 0000:11D3       SYNTAX
 0000:11FE       CRLF2
 0000:1200       CRLF
 0000:1203       REGMSG
 0000:123B       FLAGMSG
 0000:1246       R87MSG
 0000:1300       R87MSG1
 0000:1345       BSETMSG
 0000:1362       BSETEND
 0000:1366       BCLRMSG
 0000:1382       BADBP
 0000:13A4       BADBPAD
 0000:13CE       BADADR
 0000:1402       BPFULL
 0000:1421       BPTHERE
 0000:144A       BONMSG
 0000:1468       BOFFMSG
 0000:1488       SHMSG
 0000:14C8       FNFMSG
 0000:14E1       NOMMSG
 0000:150A       RDMSG
 0000:153C       NOTALL
 0000:1573       BADREG
 0000:1593       BADFLAG
 0000:15B0       PTN
 0000:15D6       NOBRK
 0000:15FD       TMBRK
 0000:1622       WPERR
 0000:1647       DNRERR
 0000:1669       DRV
 0000:166E       WRBYTES
 0000:1677       WBYTE
 0000:1680       WRNAME
 0000:1695       NONAME
 0000:16EE       DBMSG
 0000:1712       DBAD
 0000:1719       CBADMSG
 0000:175A       BADNAME
 0000:176B       NBAD
 0000:178F       INTERN
 0000:17B2       SIZEOVR
 0000:17E0       BADOP
 0000:1800       BADREAD
 0000:1824       BADWRIT
 0000:184C       FUNCT
 0000:184C       BUFF
 0000:184D       CMDBUFF
 0000:189B       LENBUFF
 0000:189C       BUFFBKP
 0000:18EC       LENBKP
 0000:18ED       TEMPBUF
 0000:18F0       COMSPEC
 0000:18F8       CPBUFF
 0000:1947       CMDOUT
 0000:1949       FLAGBUF
 0000:1952       SPACE7
 0000:1957       BLANK2
 0000:1958       BLANK1
 0000:195A       OPBUFF
 0000:19AC       DUMPBUFF
 0000:19FC       MINFO
 0000:1A02       GETBUFF
 0000:1A52       CDIRLEN
 0000:1A53       CURRENT
 0000:1A56       CDIR
 0000:1A96       PATH
 0000:1AD6       ASMAREA
 0000:1AE1       LOADCT
 0000:1AE2       LOADBUF
 0000:1B22       UASMLOC
 0000:1B26       ASMLOC
 0000:1B2A       DUMPLOC
 0000:1B2E       ENVSEG
 0000:1B30       WRLOC
 0000:1B32       CHILDPSP
 0000:1B34       DEBUGPSP
 0000:1B36       SHRINK
 0000:1B38       SBUFSEG
 0000:1B3A       RETADDR
 0000:1B3A       RETOFF
 0000:1B3C       RETSEG
 0000:1B3E       RETFLAG
 0000:1B40       RETLOC
 0000:1B42       CMDSS
 0000:1B44       CMDSP
 0000:1B46       CMDES
 0000:1B48       USERPRG
 0000:1B4C       TCOUNT
 0000:1B4E       ENV
 0000:1B4E       PARMBLK
 0000:1B50       PARMLIN
 0000:1B54       FCB1LOC
 0000:1B58       FCB2LOC
 0000:1B5C       STKLOC
 0000:1B60       DLOC
 0000:1B64       DBADDR
 0000:1B66       DBPORT
 0000:1B68       SCRADDR
 0000:1B6A       SCURSOR
 0000:1B6C       VALSI
 0000:1B6E       VALDI
 0000:1B70       VALBX
 0000:1B72       SIZEHI
 0000:1B74       SIZELO
 0000:1B76       GETSI
 0000:1B78       LASTOP
 0000:1B7A       SEABX
 0000:1B7C       SAVEIP
 0000:1B7E       CPPARMS
 0000:1BAE       STKPTR
 0000:1BB0       STKSEG
 0000:1BB2       MODES
 0000:1BB9       SPAGE
 0000:1BBA       VMODE
 0000:1BBB       SMODE
 0000:1BBC       LASTVAL
 0000:1BBD       RUBOUT
 0000:1BC1       LASTERR
 0000:1BC2       OLD01
 0000:1BC6       OLD02
 0000:1BCA       OLD03
 0000:1BCE       OLD20
 0000:1BD2       OLD22
 0000:1BD6       OLD23
 0000:1BDA       OLD24
 0000:1BDE       BPTAB
 0000:1C2E       BPINS
 0000:1C42       FCBBUF1
 0000:1C52       FCBBUF2
 0000:1C62       BEGIN
 0000:1C7E       NOROUT
 0000:1C91       NORIN
 0000:1CAD       BEGINA
 0000:1CDC       AMSTART
 0000:1CF1       AMBEGIN
 0000:1CF3       AMEND
 0000:1D78       BEGIN1
 0000:1D85       BEGIN2
 0000:1DBA       BEGIN3
 0000:1DC0       BEGIN3A
 0000:1DCD       BEGIN3B
 0000:1E03       INITFCB
 0000:1E10       ENDFCB
 0000:1E2B       BEGIN3C
 0000:1E31       BEGIN4
 0000:1E41       BEGIN4A
 0000:1E70       ISTERM
 0000:1E76       NOTTCB
 0000:1EA0       BEGIN5
 0000:1EAB       CPUVER
 0000:1EE8       NOT386
 0000:1EED       DBCON1
 0000:1F13       DOTSL
 0000:1F38       DOTSL1
 0000:1F74       REPEAT
 0000:1F83       ERRRP
 0000:1F89       NOERR
 0000:1F94       CONT
 0000:1F9F       EXITDEB
 0000:1FB4       QRETURN
 0000:1FCC       QUIT
 0000:1FE2       DUMMY
 0000:1FE6       ASM
 0000:1FFC       ASM1
 0000:2006       ASM2
 0000:2019       COMP
 0000:2044       COMP0
 0000:205B       COMP1
 0000:20AC       COMP2
 0000:20B7       COMP3
 0000:20B9       COMP4
 0000:20BB       COMP5
 0000:20C3       DUMP
 0000:20E6       DUMP0
 0000:20EA       DUMP1
 0000:2120       DUMP2
 0000:2138       DUMP3
 0000:214B       DUMP4
 0000:214D       DUMP5
 0000:2156       DUMP6
 0000:216D       DUMP7
 0000:217D       DUMP8
 0000:217F       DUMP9
 0000:2183       DUMP10
 0000:218D       DUMPDON
 0000:2194       ENTR
 0000:21C0       ENTR1
 0000:21D1       ENTR2
 0000:2201       ENTR21
 0000:2224       ENTRUS
 0000:2231       ENTR22
 0000:224F       ENTR23
 0000:2256       ENTRDON
 0000:226D       FILL
 0000:2299       FILL1
 0000:22A3       FILL2
 0000:22A7       FILLEND
 0000:22AF       GO
 0000:22BE       GOSCLR
 0000:22F2       GO1
 0000:22FA       GO2
 0000:2312       GO3
 0000:232B       GO3BAD
 0000:2335       GO4
 0000:2350       ONPSP
 0000:23A9       GORET
 0000:23E3       GO5
 0000:23F0       GOEND
 0000:23FD       HEX
 0000:2440       INPUT
 0000:2453       INPUT1
 0000:247F       INPUT2
 0000:2486       LOAD
 0000:24B2       BADLOAD
 0000:24B5       LOAD1
 0000:24C6       LOAD1A
 0000:24F6       LRETURN
 0000:2506       LSKIP
 0000:252F       LOAD2
 0000:2559       LDERR
 0000:255E       LOAD3
 0000:2561       LOAD4
 0000:2576       LOADDO
 0000:2583       LOADOK
 0000:2585       LDOK
 0000:2587       LDEXIT
 0000:258E       MOVE
 0000:25BC       MOVINIT
 0000:25D0       MOVE1
 0000:25D8       MOVE2
 0000:25E6       MOVE3
 0000:25E8       MOVE4
 0000:25F4       MOVE5
 0000:25F8       MOVEEND
 0000:2604       NAMEOUT
 0000:2658       NERR1
 0000:265A       NAMEERR
 0000:2668       NAMESET
 0000:266D       NAMEDON
 0000:2676       OUTPUT
 0000:2688       OUTPUT2
 0000:2691       OUTPUT3
 0000:2697       PROCEED
 0000:26A1       PSCLR
 0000:26DB       P1
 0000:26E3       P2
 0000:26FD       P3
 0000:2704       P4
 0000:2735       P4A
 0000:277A       PBRET
 0000:27A1       PSKIP
 0000:27B5       P5
 0000:27BF       P7
 0000:2805       PTRET
 0000:282D       PDUMP
 0000:2830       PEND
 0000:283D       REG
 0000:2850       RF1
 0000:285A       RF2
 0000:2896       RF3
 0000:289B       RF4
 0000:28AB       RF5
 0000:28B2       RFBAD
 0000:28C8       RFSET
 0000:28CF       RFDONE
 0000:28D2       RFSKIP
 0000:28D9       REGSKIP
 0000:28DC       REG00
 0000:28EF       REG01
 0000:2937       REGDEB
 0000:2948       REG01A
 0000:2959       REG01B
 0000:2961       REG01C
 0000:2965       REG01D
 0000:296A       REG01E
 0000:297B       REG02
 0000:298E       REG02A
 0000:2996       REG03
 0000:2999       REG04
 0000:299C       REG3
 0000:299E       REG4
 0000:29A5       SEARCH
 0000:29D5       SRCHLP
 0000:2A14       SRCHSK
 0000:2A15       SRCHNX
 0000:2A19       SRCHEND
 0000:2A22       TRACE
 0000:2A57       T1
 0000:2A5F       T2
 0000:2A79       T3
 0000:2A80       T4
 0000:2AA7       T4A
 0000:2B2F       T4B
 0000:2B63       TRET
 0000:2B88       TSKIP
 0000:2B8E       TEND
 0000:2B95       UNASM
 0000:2BB3       UNASM1
 0000:2BBA       UNASM2
 0000:2BCC       WRITE
 0000:2BF2       WRITE0
 0000:2BFF       WRITE0A
 0000:2C02       WRITE1
 0000:2C13       WRITE1A
 0000:2C44       WLOOP
 0000:2C51       WNEXT
 0000:2C86       NOCREAT
 0000:2C8C       WRITE1B
 0000:2C9B       WRITE1C
 0000:2CAF       WRITE1D
 0000:2CB3       WRITE1E
 0000:2CC1       WRITE1F
 0000:2CE5       WRITE1G
 0000:2D06       WRITE1H
 0000:2D0C       WRITE1I
 0000:2D14       WRITE2
 0000:2D3F       WRERR
 0000:2D44       WRITE3
 0000:2D47       WRITE4
 0000:2D5C       WRITEDO
 0000:2D69       WRITEOK
 0000:2D6D       WFILERR
 0000:2D75       WROK
 0000:2D77       WREXIT
 0000:2D7F       ASMUN
 0000:2D97       ASMUN1
 0000:2DA5       ASMUN2
 0000:2DB6       ASMUN3
 0000:2DC8       GETKEY
 0000:2DD4       GETKEY1
 0000:2DE2       OUTCHAR
 0000:2DF0       OUTCH1
 0000:2DF3       OUTCEND
 0000:2DF5       GETMSG
 0000:2E0C       GMSG1
 0000:2E23       DOSCR
 0000:2E30       DOSCR1
 0000:2E39       DOSCR2
 0000:2E39       DONULL
 0000:2E3B       DOF3
 0000:2E4E       DOF3LP
 0000:2E63       GMSG1A
 0000:2E69       GMSG1B
 0000:2E87       GMSG2
 0000:2E8E       GMSG3
 0000:2E9A       GMSGEND
 0000:2EAC       OUTTEXT
 0000:2EB6       OUTMC
 0000:2EC0       OUTTLP1
 0000:2EC8       OUTTEND1
 0000:2EE2       OUTTSKIP
 0000:2EE9       OUTTERM
 0000:2EED       OUTLP
 0000:2EF9       OUTEND
 0000:2EFC       OUTMSG
 0000:2F0B       OUTMG1
 0000:2F0F       OUTMG2
 0000:2F1F       OUTMG7
 0000:2F21       OUTMEND
 0000:2F23       COMOUT
 0000:2F3C       MATH
 0000:2F4F       MATH0
 0000:2FA1       MATH1
 0000:2FB8       MATH2
 0000:2FD1       MATH3
 0000:2FFD       HELP
 0000:300E       HLOOP
 0000:3014       HLOOP2
 0000:3058       BPON
 0000:3069       BPOFF
 0000:307A       BPSET
 0000:3095       BP0
 0000:309F       BP1
 0000:30A5       BP2
 0000:30BF       BP3
 0000:30C5       BP4
 0000:30CE       BP5
 0000:30DD       BP6
 0000:30EB       BP7
 0000:30F6       BP12
 0000:3100       BPCLR
 0000:3114       BC1
 0000:311D       BC2
 0000:3132       BC3
 0000:3137       BPLIST
 0000:3142       BPL1
 0000:3157       BPL2
 0000:315C       BPL3
 0000:3169       BPL4
 0000:316F       BPDISP
 0000:318C       BPD1
 0000:31B2       BPD2
 0000:31B6       BPD3
 0000:31CA       SWAP
 0000:31DB       SWAPEND
 0000:31DF       SHELL
 0000:31FB       SHDO
 0000:3205       SH1
 0000:320C       SHBEG
 0000:3240       SHDEB
 0000:3242       SHRET
 0000:324E       SH2
 0000:325B       SHDONE
 0000:3262       CONFIG
 0000:3291       CFIG1
 0000:32B1       CFIG3
 0000:32B8       CONSOLE
 0000:32F7       CONBYTE
 0000:3301       CONSET
 0000:3314       CONSKIP
 0000:3329       CONBAD
 0000:3330       CONEND
 0000:3336       CONS0
 0000:3348       CONS1
 0000:3358       CONS2
 0000:335E       PAUSE
 0000:336B       PAUSE1
 0000:336E       PAUSE2
 0000:3372       DELAY
 0000:337F       DELAY1
 0000:3399       DELAY2
 0000:33A0       DELAY3
 0000:33A8       VERIFY
 0000:33D4       VERERR
 0000:33D9       VER1
 0000:33F5       VER2
 0000:33F7       VEREXIT
 0000:3400       MOSINFO
 0000:341E       SETTRAP
 0000:3459       SETINT
 0000:34AE       SKIPSINT
 0000:34B4       RESTINT
 0000:34DF       SETSS
 0000:3504       RESTSS
 0000:351A       SSTEP
 0000:351B       SS1
 0000:352A       SS2
 0000:3563       BREAK2
 0000:35AB       BREAK3
 0000:35EE       TERM
 0000:3615       TERM1
 0000:3622       TERM2
 0000:3627       CTLBRK
 0000:366B       CB1
 0000:36B0       FATAL
 0000:36C6       FT1
 0000:370A       SETBRK
 0000:371D       CLRBRK
 0000:3734       INSBRK
 0000:3749       IB0
 0000:374C       IB1
 0000:375A       IB2
 0000:3764       IB3
 0000:3772       IBEND
 0000:377D       REMBRK
 0000:3792       RB0
 0000:3795       RB1
 0000:37A3       RB2
 0000:37C0       RB3
 0000:37C9       RBEND
 0000:37D4       SAVEREG
 0000:37FF       RESTREG
 0000:3826       DOSWAP
 0000:3830       DSEND
 0000:3831       SWAPSCR
 0000:3846       SSSTART
 0000:386B       SSLOOP
 0000:3875       SSDONE
 0000:387E       CLRSBUF
 0000:3896       DOPFUN
 0000:38F2       MOPFUN
 0000:394E       FINDTAB
 0000:39E6       TAB17
 0000:39FE       TAB18
 0000:3A16       TAB15
 0000:3A2E       TAB10
 0000:3A32       TAB10A
 0000:3A4E       GETCMD
 0000:3AB7       GET1
 0000:3ABE       GET2
 0000:3AC3       GETOP
 0000:3B2F       GOPDO
 0000:3B40       GOPDO1
 0000:3B47       GOPSOK
 0000:3B6E       GOPXDB
 0000:3B94       GOPNDB
 0000:3B98       GOPFND
 0000:3B9B       GOPFEND
 0000:3BA4       GOPFOK
 0000:3BAD       GOPMOK
 0000:3BB1       GOPERR
 0000:3BB8       GOPEND
 0000:3BBA       FIXBUFF
 0000:3BC5       FXLOOP
 0000:3BD2       FXDONE
 0000:3BDB       FIXLOOP
 0000:3BE7       FIX0
 0000:3BEC       FIX1
 0000:3BF6       FIX2
 0000:3BFA       FIX3
 0000:3BFD       FIX4
 0000:3C01       SCANMEN
 0000:3C0D       SMCHK
 0000:3C22       SMINIT
 0000:3C3A       SMLOOP
 0000:3C4E       SMLP1
 0000:3C58       SMFOUND
 0000:3C5D       SMFND1
 0000:3C69       SMFND2
 0000:3C6C       SMFND3
 0000:3C71       SMENEND
 0000:3C7D       VALTYPE
 0000:3C96       VTEND
 0000:3C98       FINDMAP
 0000:3CA2       FMLOOP
 0000:3CB2       FMERR
 0000:3CB7       FMFOUND
 0000:3CBB       FMDONE
 0000:3CC0       MAP
 0000:3CDC       MAPDONE
 0000:3CE0       MAPSCAN
 0000:3CE8       MS0
 0000:3CF4       MS1
 0000:3CFC       MS2
 0000:3D03       MS3
 0000:3D11       MS4
 0000:3D18       MS5
 0000:3D23       MS6
 0000:3D2E       MS7
 0000:3D39       MSBAD
 0000:3D3C       FINDOP
 0000:3D42       FOPLP
 0000:3D55       FOPERR
 0000:3D59       FOPCONT
 0000:3D62       FOP1
 0000:3D70       FOP2
 0000:3D82       FND1
 0000:3D8F       FND2
 0000:3D91       FND3
 0000:3D95       FND4
 0000:3DBC       FNDCALL
 0000:3DBE       FNDRET
 0000:3DC3       FND5
 0000:3DD8       FND6
 0000:3DDB       FND7
 0000:3DE1       FD1
 0000:3DEE       FD1AA
 0000:3DFD       FD1AB
 0000:3E17       FD1A
 0000:3E1C       FD1B
 0000:3E46       FD1C
 0000:3E4B       FD1D
 0000:3E54       FD1E
 0000:3E6A       FD1F
 0000:3E75       FD1G
 0000:3E8C       FD1CMP
 0000:3E96       FD1BAD
 0000:3E99       FD1DONE
 0000:3E9B       FD2
 0000:3EB4       FD2NFAR
 0000:3ED9       FD2FAR
 0000:3EE0       FD2FAR0
 0000:3EE6       FD2FAR1
 0000:3EEC       FD2NR
 0000:3EF3       FD2NR0
 0000:3EF9       FD2NR1
 0000:3EFF       FD2EA
 0000:3F02       FD2CMP
 0000:3F06       FD2OK
 0000:3F09       FD2BAD
 0000:3F0D       FD3
 0000:3F2C       FD3BAD
 0000:3F2F       FD3OK
 0000:3F30       FD4
 0000:3F45       FD4REGW
 0000:3F55       FD4REGB
 0000:3F65       FD4BAD
 0000:3F68       FD4OK
 0000:3F69       FD4EA
 0000:3F82       FD5
 0000:3F83       FD6
 0000:3F98       FD6AX
 0000:3F99       FD6AL
 0000:3FC8       FD6ERR
 0000:3FCE       FD6DX
 0000:3FD1       FD6OK
 0000:3FDC       FD6DONE
 0000:3FDE       FD7
 0000:400C       FD7A
 0000:4025       FD7BP
 0000:4033       FD7WP
 0000:403F       FD7OK
 0000:4042       FD7ERR
 0000:4045       FD8
 0000:405F       FD8INT3
 0000:4065       FD8OK
 0000:4069       FD8ERR
 0000:406C       FD8DONE
 0000:406E       FD9
 0000:4091       FD9V
 0000:40BC       FD9BAD
 0000:40C0       FD9TFAR
 0000:40CF       FD9NR
 0000:40DA       FD9SH
 0000:40DE       FD9FAR
 0000:40E9       FD9NEA
 0000:40EE       FD9EA
 0000:40F3       FD9CMP
 0000:40F5       FD9ECMP
 0000:40FC       FD9DONE
 0000:40FD       FD10
 0000:4118       FD10NXT
 0000:412F       FD10BAD
 0000:4132       FD101
 0000:4137       FD102
 0000:413C       FD103
 0000:4141       FD104
 0000:4146       FD105
 0000:4152       FD106
 0000:415E       FD107
 0000:4176       FD10BD
 0000:4179       FD108
 0000:4199       FD109
 0000:419E       FD1010
 0000:41A3       FD1011
 0000:41A8       FD1012
 0000:41AD       FD10CMP
 0000:41B6       FD10OK
 0000:41B9       VDIRECT
 0000:41CE       VDIR1
 0000:41D1       FD11
 0000:41F3       FD11DX
 0000:4216       FD11AX
 0000:4217       FD11AL
 0000:4219       FD11ERR
 0000:421F       FD11OK
 0000:422A       FD11DON
 0000:422C       FD12
 0000:4243       FD12NR
 0000:424E       FD12NRD
 0000:424F       FD13
 0000:425D       FD13SS
 0000:4267       FD13DS
 0000:4271       FD13ES
 0000:427B       FD13REG
 0000:4293       FD13RG
 0000:4299       FD13CMP
 0000:42A3       FD13BAD
 0000:42A6       FD13DON
 0000:42A8       FD13NR
 0000:42B3       FD13NRD
 0000:42B4       FD14
 0000:42D4       FD14A
 0000:42DF       FD14OK
 0000:42E2       FD15
 0000:42F9       FD15BAD
 0000:42FC       FD151
 0000:4301       FD153
 0000:4306       FD155
 0000:430B       FD156
 0000:4310       FD157
 0000:4316       FD158
 0000:431C       FD15CMP
 0000:431E       FD15CP1
 0000:4325       FD16
 0000:434A       FD16A
 0000:4377       FD161
 0000:4388       FD16BAD
 0000:438C       FD17
 0000:43B1       FD17A
 0000:43B2       FD17B
 0000:43B9       FD17BAD
 0000:43BD       FD171
 0000:43D9       FD172
 0000:43F5       FD173
 0000:4411       FD17OK
 0000:4414       FD174
 0000:4430       FD175
 0000:444C       FD176
 0000:4468       FD8183
 0000:446F       FD8183A
 0000:4472       FD18
 0000:4489       FD18BAD
 0000:448C       FD181
 0000:449E       FD182
 0000:44B0       FD183
 0000:44C2       FD18OK
 0000:44C5       FD184
 0000:44D7       FD185
 0000:44E9       FD186
 0000:44FB       FD80
 0000:450A       FD81
 0000:4519       FD83
 0000:4528       FDXXBAD
 0000:452B       MAKERM
 0000:4536       RMLOOP
 0000:4548       RMSET
 0000:4555       RMSET1
 0000:456E       RMSET2
 0000:4575       RMSET3
 0000:457F       RMBAD
 0000:4584       RMDONE
 0000:4587       RMFIN
 0000:458C       MAKEOP
 0000:459A       MOP1
 0000:45BB       MOP1A
 0000:45C8       MOP1B
 0000:45CE       MOP1C
 0000:45F8       MOP1CA
 0000:45FF       MOP1CB
 0000:4604       MOP1D
 0000:460F       MOP1E
 0000:4612       MOP2
 0000:462A       MOPCALL
 0000:462F       MOPCRET
 0000:4632       MOP00
 0000:465A       MOP00BR
 0000:465A       MOP00RG
 0000:4676       MOP00BD
 0000:467C       MOP00NR
 0000:4691       MOP00C
 0000:46AD       MOP00SC
 0000:46D5       MOP00S1
 0000:46D5       MOP00SS
 0000:46E1       MOP00SB
 0000:46E4       MOP00SR
 0000:46E7       MOP01
 0000:470F       MOP01NS
 0000:4719       MOP01NP
 0000:4741       MOP01BR
 0000:4741       MOP01RG
 0000:4763       MOP01BD
 0000:4769       MOP01NR
 0000:477E       MOP01C
 0000:4794       MOP03R
 0000:479D       MOP03
 0000:47A1       MOP03C
 0000:47AF       MOP03E
 0000:47B4       MOP0809
 0000:47E2       MOP89A
 0000:47EE       MOP89RG
 0000:47F5       MOP89B
 0000:480D       MOP89C
 0000:481D       MOP89BD
 0000:4822       MOP0A
 0000:484C       MOP0AE
 0000:4851       MOP0AB
 0000:4855       MOP0B
 0000:4859       MOP0BA
 0000:486B       MOP0BB
 0000:487E       MOP0BC
 0000:4888       MOP0BD
 0000:488A       MOP0CE
 0000:488A       MOP0BE
 0000:488D       MOP0CF
 0000:48AE       MOP0C
 0000:48B2       MOP0CV
 0000:48DE       MOP0CA
 0000:48E3       MOP0CB
 0000:48E8       MOP0E
 0000:4912       MOP0EBD
 0000:4916       MOP0ENR
 0000:492E       MOP0EC
 0000:494B       MOP0F
 0000:497D       MOP0FBD
 0000:4981       MOP0FNR
 0000:4999       MOP0FC
 0000:49B6       MOP10
 0000:49C0       MOP11
 0000:49E1       MP11BAD
 0000:49E5       MOP12
 0000:4A06       MOP11R
 0000:4A2F       MOP11BR
 0000:4A2F       MOP11RG
 0000:4A4F       MOP11BD
 0000:4A54       MOP11NR
 0000:4A69       MOP11C
 0000:4A7F       MOP11C1
 0000:4A95       MOP14
 0000:4ABC       MOP14NP
 0000:4ACE       MOP14BD
 0000:4AD4       MOP14NR
 0000:4AE9       MOP14C
 0000:4AFF       MOP15
 0000:4B1B       MOP15R
 0000:4B3E       MOP15C
 0000:4B5C       MOP156S
 0000:4B6C       MOP156W
 0000:4B6F       MOP156D
 0000:4B74       MOP156B
 0000:4B79       MOP16
 0000:4BAF       MOP16RG
 0000:4BDB       MOP156E
 0000:4BEC       M156OK
 0000:4BF3       M156L
 0000:4C05       M156S
 0000:4C12       M156BAD
 0000:4C15       M156SD
 0000:4C16       M156DON
 0000:4C1C       MOP18
 0000:4C38       MOP18BD
 0000:4C3B       MOP1FA
 0000:4C47       MOS1FAL
 0000:4C5F       MOP1F
 0000:4C63       MOPBYTE
 0000:4C6E       MOPXEND
 0000:4C71       MOP20
 0000:4C77       MOP21
 0000:4C85       MOPEA
 0000:4C88       MOPERR
 0000:4C8B       MOPRET
 0000:4C8E       MOPDONE
 0000:4C92       SCANEA
 0000:4CA9       SEA0
 0000:4CAC       SEA1
 0000:4CC4       SEA1A
 0000:4CD4       SEA1B
 0000:4CDD       SEA9SI
 0000:4CE3       SEA9DI
 0000:4CE9       SEA3BP
 0000:4CEE       SEA3BX
 0000:4CF1       SEA3
 0000:4D09       SEA4
 0000:4D0C       SEA5
 0000:4D32       SEA5B
 0000:4D3B       SEA6SI
 0000:4D40       SEA6DI
 0000:4D43       SEA6
 0000:4D5B       SEA7
 0000:4D5E       SEA8
 0000:4D6B       SEA8B
 0000:4D82       SEA9
 0000:4D9A       SEA10
 0000:4D9D       SEA11
 0000:4DC1       SEA11B
 0000:4DC9       SEA12BP
 0000:4DCE       SEA12BX
 0000:4DD3       SEA13
 0000:4DEB       SEA14
 0000:4DEE       SEA15
 0000:4E09       SEA20SI
 0000:4E0F       SEA20DI
 0000:4E15       SEA16BP
 0000:4E1A       SEA16BX
 0000:4E1D       SEA16
 0000:4E35       SEA17
 0000:4E38       SEA18
 0000:4E4B       SEA19SI
 0000:4E50       SEA19DI
 0000:4E53       SEA19
 0000:4E63       SEA20
 0000:4E7A       SEA21
 0000:4E8C       SEA22BP
 0000:4E91       SEA22BX
 0000:4E94       SEA22
 0000:4EA4       SEAERR
 0000:4EA8       SEADONE
 0000:4EAD       REGSIZE
 0000:4EC7       RSBAD
 0000:4ECB       RSWORD
 0000:4ECD       RSDONE
 0000:4ECE       GETREG
 0000:4ECF       GREG1
 0000:4EE0       GREG2
 0000:4EED       GREG3
 0000:4EFC       GREG4
 0000:4EFF       GREG5
 0000:4F01       GREG6
 0000:4F0B       GREG7
 0000:4F11       GREG8
 0000:4F27       GREG9
 0000:4F2D       GREG10
 0000:4F2F       GREG11
 0000:4F31       GETRANG
 0000:4F47       GRANG1
 0000:4F4D       GETLEN
 0000:4F5B       GETLEN0
 0000:4F73       GETLEN1
 0000:4F74       GETLEN2
 0000:4F84       GETLEN3
 0000:4F8F       GETLEN4
 0000:4FA3       GETLEN5
 0000:4FA6       GETLIST
 0000:4FC0       GLIST1
 0000:4FE5       GLIST2
 0000:4FF2       GLIST2A
 0000:4FF5       GLIST3
 0000:4FFD       GLIST4
 0000:5001       GETRVAL
 0000:500F       GRV0
 0000:5033       GRV1
 0000:503D       GRV2
 0000:5041       GETADDR
 0000:5058       GADDR1
 0000:5066       GADDR2
 0000:5069       USERHEX
 0000:5073       UHLOOP
 0000:5090       UH1
 0000:50A3       UH2
 0000:50B3       UH3
 0000:50C1       UHSET
 0000:50D0       UH4
 0000:50D7       UHDONE
 0000:50DB       UHNEXT
 0000:50DE       UHCHK
 0000:50E6       UH5
 0000:50F7       UDINIT
 0000:5102       UDISP
 0000:510A       UHEND
 0000:510F       GETHEX
 0000:5123       GHEX1
 0000:513C       GHEX2
 0000:514C       GHEX3
 0000:5160       GHEX4
 0000:518F       GHEX6
 0000:5196       GHEX7
 0000:519A       REMSPAC
 0000:519B       REM1
 0000:51AE       REM2
 0000:51B0       REM3
 0000:51B2       SCANCOM
 0000:51BA       SCANSEA
 0000:51C2       SCBYTE
 0000:51C5       SCBYTE1
 0000:51D8       SCBYTE2
 0000:51DC       SCBYTE3
 0000:51DF       SCBYTE4
 0000:51E1       MAKEFCB
 0000:51FE       MF1
 0000:5205       MF2
 0000:5206       MF3
 0000:521D       MFERROR
 0000:5221       MF4
 0000:522C       MFDONE
 0000:5231       MKPATH
 0000:5261       MPATHS
 0000:5264       MPATHA
 0000:5269       MPATHB
 0000:526A       MPATHC
 0000:526B       MPATH1
 0000:527B       MPATH2
 0000:5284       LOADPRG
 0000:5293       LOADEXE
 0000:52B0       LCOMTST
 0000:52BD       LEXEDON
 0000:52C2       LEXEFIN
 0000:52CF       CHKLOOP
 0000:52E1       CHKDONE
 0000:52EF       CHKOK
 0000:5310       LPRG1
 0000:531C       LPRGFIL
 0000:5351       MANLP1
 0000:535B       MANLP2
 0000:5389       MANERR
 0000:5398       MANDONE
 0000:539E       MANCLS
 0000:53A2       MANFIN
 0000:53B6       LPRG4B
 0000:53C2       LPINIT1
 0000:53CF       LPINIT2
 0000:53DC       LPINIT3
 0000:53E0       LPLINE1
 0000:53ED       LPLINE2
 0000:53F5       LPRG2
 0000:5417       LPRG2OK
 0000:5418       LPBEGIN
 0000:541A       LPEND
 0000:5424       LPERROR
 0000:5430       LOADREG
 0000:5499       LOADTRM
 0000:54B1       LOADEND
 0000:54BC       CHKSIZE
 0000:54CC       CS2
 0000:54FD       CSEND
 0000:5500       SYNERR
 0000:5508       SERR
 0000:5517       ERRMSG
 0000:5536       ERRMSG1
 0000:5541       ERRMSG2
 0000:554C       ERRGEN
 0000:5550       ERRDISP
 0000:555E       ERRDONE
 0000:5561       TOFLAG
 0000:55A5       FRFLAG
 0000:55DF       DISPFG
 0000:55EE       DISPFG1
 0000:55F9       DISPFG2
 0000:560D       DISPOP
 0000:5652       IS8283
 0000:5659       NOT_83
 0000:5664       NOT_F6
 0000:566F       NOT_F7
 0000:567A       NOT_FE
 0000:5685       NOT_FF
 0000:5690       NOT_80
 0000:569B       NOT_81
 0000:56A3       ISD0D1
 0000:56AA       NOTD0D1
 0000:56B2       ISD2D3
 0000:56B6       SETEXTR
 0000:56CD       NOTD2D3
 0000:5702       NOT_FFA
 0000:5704       DISPOP1
 0000:5711       DISPOP2
 0000:5724       DISPOP3
 0000:572C       DISPOP4
 0000:5730       DISPOP5
 0000:5732       DISPOP6
 0000:5742       DISPOP7
 0000:5753       DOPRET
 0000:5754       DOP00
 0000:5775       DOP001
 0000:5779       DOP002
 0000:578E       DOP003
 0000:57B4       DOP004
 0000:57C0       DOP01
 0000:57D8       DOP011
 0000:5813       DOP01I
 0000:584C       DOP012
 0000:5852       DOP013
 0000:585F       DOP013A
 0000:5874       DOP014
 0000:5878       DOP02
 0000:5893       DOP03
 0000:58AA       DOP04
 0000:58C0       DOP05
 0000:58DE       DOP06
 0000:58EA       DOP08
 0000:5913       DOP081
 0000:5919       DOP082
 0000:5925       DOP09
 0000:594E       DOP091
 0000:5954       DOP092
 0000:5964       DOP0A
 0000:5979       DOP0A1
 0000:597D       DOP0A2
 0000:5983       DOP0B
 0000:5994       DOP0C
 0000:59AB       DOP0E
 0000:59C6       DOP0F
 0000:59E1       DOP10
 0000:59F7       DOP11
 0000:5A1F       DOP11A
 0000:5A23       DOP11B
 0000:5A44       DOP11C
 0000:5A58       DOP11D
 0000:5A61       DOP11E
 0000:5A6B       DOP12
 0000:5A89       DOP12A
 0000:5AA3       DOP12B
 0000:5AAC       DOP12C
 0000:5AB4       DOP13
 0000:5ACA       DOP14
 0000:5B0A       DOP14A
 0000:5B10       DOP14B
 0000:5B14       DOP15
 0000:5B51       DOP16
 0000:5B8E       DOP17
 0000:5BAE       DOP18
 0000:5BCD       DOP19
 0000:5BEC       DOP1A
 0000:5C0B       DOP1B
 0000:5C2A       DOP1C
 0000:5C4E       DOP1D
 0000:5C72       DOP1E
 0000:5C77       DOP1F
 0000:5C83       DOP21
 0000:5C87       DOP21A
 0000:5C9A       DOP22
 0000:5CA0       DOP23
 0000:5CB7       DOP24
 0000:5CCE       DOP25
 0000:5CE1       DOP26
 0000:5CF4       DOP27
 0000:5D07       DOP28
 0000:5D1A       DOP2A
 0000:5D3A       DOP2B
 0000:5D45       DOP2C
 0000:5D68       DISPOP8
 0000:5D78       MAKEEA
 0000:5D9C       MEA1
 0000:5DA4       MEA2
 0000:5DB6       MEA2A
 0000:5DC8       MEA3
 0000:5DCF       MEA4
 0000:5DDC       MEA5
 0000:5DEA       MEA6
 0000:5DFC       MEA7
 0000:5E07       MEA7A
 0000:5E0E       MEA8
 0000:5E13       MEA9
 0000:5E17       MEA10
 0000:5E1D       MAKEREG
 0000:5E25       MAKE1
 0000:5E31       MAKEHEX
 0000:5E3C       MAKE
 0000:5E5F       GETENV
 0000:5E82       GELOOP
 0000:5E93       GEFIN
 0000:5EA0       GECOMP
 0000:5EB9       GEVAL
 0000:5ED1       GEDONE
 0000:5EDA       GETKBD
 0000:5EDF       DUMPREG
 0000:5FB2       DREG3
 0000:5FB6       DREG4
 0000:5FBF       SETDREG
 0000:5FCE       SAVEALL
 0000:5FF5       GETALL
 0000:601B       SKIPINS
 0000:6032       SI1
 0000:603C       SI2
 0000:604A       SI3
 0000:6054       SI4
 0000:605E       SI5
 0000:6069       SI6
 0000:6073       SI7
 0000:607B       SI8
 0000:6097       SI9
 0000:609D       SI10
 0000:60A8       SI11
 0000:60AB       SISET
 0000:60BD       SITRACE
 0000:60BF       SIBRK
 0000:60C2       SETSEGS
 0000:60DE       SSEGEND
 0000:60E0       SIZEMAX
 0000:610A       SMAXSKP
 0000:610D       SMAXEND
 0000:610E       SIZEMIN
 0000:612F       SMINOK
 0000:6131       SMINEND
 0000:6132       VALIDOP
 0000:6141       VOPGOOD
 0000:6144       IS8087
 0000:614D       S8087
 0000:6151       GET8087
 0000:615F       ENDBYTE
 7777:0000  Abs  TCBSTART
 7777:0001  Abs  TCBTYPE
 7777:0008  Abs  TCBTCBPN
 7777:000A  Abs  TCBTCBPP
 7777:0010  Abs  TCBID
 7777:0012  Abs  TCBNCADR
 7777:0014  Abs  TCBBEGAD
 7777:0016  Abs  TCBENDAD
 7777:0018  Abs  TCBPRI
 7777:0019  Abs  TCBSLICE
 7777:001A  Abs  TCBWAIT
 7777:001B  Abs  TCBSTAT
 7777:001C  Abs  TCBPOLL
 7777:0020  Abs  TCBERRCOD
 7777:0021  Abs  TCBPRGNM
 7777:002C  Abs  TCBIBASE
 7777:002E  Abs  TCBIBSIZ
 7777:0030  Abs  TCBLOOP
 7777:0031  Abs  TCBKSHFT
 7777:0032  Abs  TCBKSHF2
 7777:0034  Abs  TCBMODE
 7777:0035  Abs  TCBPAGE
 7777:0036  Abs  TCBCOLS
 7777:0037  Abs  TCBROWS
 7777:0038  Abs  TCBSCLN
 7777:003A  Abs  TCBPGLN
 7777:003C  Abs  TCBPGST
 7777:003E  Abs  TCBCPOS
 7777:004E  Abs  TCBCTYP
 7777:0050  Abs  TCBPAL
 7777:0051  Abs  TCBOMODE
 7777:0052  Abs  TCBWINPO
 7777:0053  Abs  TCBVRAM
 7777:0054  Abs  TCBVIDH1
 7777:0056  Abs  TCBVIDP1
 7777:0058  Abs  TCBVIDW2
 7777:005A  Abs  TCBTFBPF
 7777:005C  Abs  TCBCDBPF
 7777:005E  Abs  TCBCDBPC
 7777:0060  Abs  TCBNDRIV
 7777:0061  Abs  TCBCDRIV
 7777:0062  Abs  TCBDTA
 7777:0066  Abs  TCBOLDPSP
 7777:0068  Abs  TCBOLDMBPF
 7777:006A  Abs  TCBVFLG
 7777:006B  Abs  TCBBRK
 7777:006C  Abs  TCBNTRY
 7777:006E  Abs  TCBTTRY
 7777:0070  Abs  TCBAUXBT
 7777:0071  Abs  TCBAUXCT
 7777:0072  Abs  TCBSPLTM
 7777:0074  Abs  TCBSPOOL
 7777:0076  Abs  TCBLPTXL
 7777:007A  Abs  TCBCLASS
 7777:007B  Abs  TCBUSER
 7777:007F  Abs  TCBCDFT
 7777:0080  Abs  TCBCMAP
 7777:0088  Abs  TCBCTXP
 7777:008A  Abs  TCBSP
 7777:008C  Abs  TCBSTKP
 7777:008E  Abs  TCBSVSP
 7777:0090  Abs  TCBLAGCNT
 7777:0094  Abs  TCBMMHDL
 7777:009C  Abs  TCBMMPGS
 7777:00A4  Abs  TCBVMHDL
 7777:00A8  Abs  TCBVMPGS
 7777:00AC  Abs  TCBEMS
 7777:00AE  Abs  TCB87SAV
 7777:00B0  Abs  TCBPRITM
 7777:00B2  Abs  TCBMCOUNT
 7777:00B6  Abs  TCBWTAX
 7777:00B8  Abs  TCBWTCX
 7777:00BA  Abs  TCBWINFO
 7777:00BC  Abs  TCBWTFLG
 7777:00BD  Abs  TCBCAMON
 7777:00BE  Abs  TCBBASEG
 7777:00C0  Abs  TCBERRVOL
 7777:00C4  Abs  TCBRETC
 7777:00C6  Abs  TCBAPV0A
 7777:00CA  Abs  TCBAPV0B
 7777:00CE  Abs  TCBAPV0C
 7777:00D2  Abs  TCBAPV0D
 7777:00D6  Abs  TCBAPV0E
 7777:00DA  Abs  TCBAPV0F
 7777:00DE  Abs  TCBAPV70
 7777:00E2  Abs  TCBAPV71
 7777:00E6  Abs  TCBAPV72
 7777:00EA  Abs  TCBAPV73
 7777:00EE  Abs  TCBAPV74
 7777:00F2  Abs  TCBAPV75
 7777:00F6  Abs  TCBAPV76
 7777:00FA  Abs  TCBAPV77
 7777:00FE  Abs  TCBKBCNT
 7777:00FF  Abs  TCBKBFST
 7777:0100  Abs  TCBKBFCT
 7777:0101  Abs  TCBKBMAX
 7777:0102  Abs  TCBKBAX
 7777:0104  Abs  TCBKBCX
 7777:0106  Abs  TCBKBTCK
 7777:0108  Abs  TCBKEYRDY
 7777:010C  Abs  TCBNXTDD
 7777:010E  Abs  TCBSCRDD
 7777:0110  Abs  TCBALTNUM
 7777:0112  Abs  TCBKTGGL
 7777:0113  Abs  TCBKBCTL
 7777:0114  Abs  TCBLASTKY
 7777:0116  Abs  TCBLSCAN
 7777:0117  Abs  TCBALT999
 7777:0118  Abs  TCBI9SEG
 7777:011A  Abs  TCBI9FLG
 7777:011B  Abs  TCBMOSKEY
 7777:011C  Abs  TCBTRAPCD
 7777:011D  Abs  TCBPRT61
 7777:011E  Abs  TCBFSAVR
 7777:011F  Abs  TCBNOGET
 7777:0120  Abs  TCBVRTIM
 7777:0122  Abs  TCBPTMR
 7777:0124  Abs  TCBCMODE
 7777:0125  Abs  TCBEGA
 7777:0126  Abs  TCBSPSKP
 7777:0127  Abs  TCBPRNDX
 7777:0128  Abs  TCBPRPRT
 7777:012A  Abs  TCBTOAX
 7777:012C  Abs  TCBTOCX
 7777:012E  Abs  TCBAUXTM
 7777:0130  Abs  TCBSPLTP
 7777:0132  Abs  TCBSPLTC
 7777:0134  Abs  TCBLLSER
 7777:0136  Abs  TCB$HDR
 7777:013A  Abs  TCB$CA
 7777:013B  Abs  TCB$ASI
 7777:013C  Abs  TCB$IQ
 7777:013D  Abs  TCB$EF
 7777:013E  Abs  TCB$TCP
 7777:0140  Abs  TCB$KP
 7777:0141  Abs  TCB$HB
 7777:0142  Abs  TCB$ER
 7777:0144  Abs  TCB$EBP
 7777:0146  Abs  TCB$EB
 7777:0182  Abs  TCBDEVHDR
 7777:0186  Abs  TCBDNUM
 7777:0187  Abs  TCBPCNT
 7777:0188  Abs  TCBCONFG
 7777:0189  Abs  TCB%EBUF
 7777:0288  Abs  TCB%ECOL
 7777:028A  Abs  TCB%BLEN
 7777:028C  Abs  TCBTSK38
 7777:0290  Abs  TCBPARM2E
 7777:029E  Abs  TCBORIG8
 7777:02A2  Abs  TCBORIG1C
 7777:02A6  Abs  TCBMREADY
 7777:02AA  Abs  TCBCRIT24
 7777:02AB  Abs  TCBHOLD
 7777:02B1  Abs  TCBPSCAN
 7777:02B2  Abs  TCBLOCKER
 7777:02B3  Abs  TCBSLCNT
 7777:02B4  Abs  TCB_MACHINE_NAME
 7777:02C4  Abs  TCB_MACHINE_ID
 7777:02C6  Abs  TCB_MALLOC_STRATEGY
 7777:02C8  Abs  TCBVERSN
 7777:02CA  Abs  TCB15AX
 7777:02CC  Abs  TCB15CX
 7777:02CE  Abs  TCBBBSY
 7777:02CF  Abs  TCBDBSY
 7777:02D0  Abs  TCBIRETRY
 7777:02D1  Abs  FILLER
 7777:02D2  Abs  TCBIN10
 7777:02D3  Abs  TCB13ONCE
 7777:02D4  Abs  TCBOCLASS
 7777:02D5  Abs  TCBODRIV
 7777:02D6  Abs  TCBRSTOK
 7777:02D7  Abs  TCBKBRATE
 7777:02D8  Abs  TCBKBCMD
 7777:02D9  Abs  TCBKBSTG
 7777:02DA  Abs  TCB15SUPR
 7777:02DB  Abs  TCBCONLY
 7777:02DC  Abs  TCBTCTST
 7777:02DD  Abs  TCBTCTND
 7777:02DE  Abs  TCBPSP
 7777:02E0  Abs  TCBTEXT2E
 7777:0361  Abs  TCBNEST13
 7777:0362  Abs  TCBCHN13
 7777:0376  Abs  TCBBDBWF
 7777:0377  Abs  TCBDBWAX
 7777:0379  Abs  TCBDBWCX
 7777:037B  Abs  TCBCON417
 7777:037C  Abs  TCBD40F
 7777:037D  Abs  TCBTSLNST
 7777:037E  Abs  TCB24NEST
 7777:037F  Abs  TCBCHDR
 7777:0383  Abs  TCBCDAY
 7777:0385  Abs  TCBSAV24
 7777:0387  Abs  TCBHDL24
 7777:0389  Abs  TCBTPFRM
 7777:038B  Abs  TCBPOST
 7777:038F  Abs  TCB%SB0A
 7777:058F  Abs  TOPSB0A
 7777:0590  Abs  TCB%RS0A
 7777:0592  Abs  TCB%RP0A
 7777:0594  Abs  TCB%CP0A
 7777:0596  Abs  TCB%RS3F
 7777:0598  Abs  TCB%RP3F
 7777:059A  Abs  TCB%CP3F
 7777:059C  Abs  TCB%DBUF
 7777:05A4  Abs  TCB%CBOT
 7777:05A5  Abs  TCB%STCL
 7777:05A6  Abs  TCB%NSTLN
 7777:05A7  Abs  TCB%LREF
 7777:05A8  Abs  TCB%MAXC
 7777:05A9  Abs  TCB%MAXL
 7777:05AA  Abs  TCB%DLEN
 7777:05AC  Abs  TCB%LTC
 7777:05AE  Abs  TCB%TTC
 7777:05B0  Abs  TCB%NMXB
 7777:05B2  Abs  TCB%STGC
 7777:05B4  Abs  TCB%INSF
 7777:05B5  Abs  TCB%FLGS
 7777:05B6  Abs  TCBBRKFG
 7777:05B7  Abs  TCBNEST
 7777:05B8  Abs  TCBORGSP
 7777:05BA  Abs  TCBSREG
 7777:05D0  Abs  TCBCONDD
 7777:05D4  Abs  TCBDLOFS
 7777:05D6  Abs  TCBDLSEG
 7777:05D8  Abs  TCBDCOFS
 7777:05DA  Abs  TCBDCOL
 7777:05DB  Abs  TCBPORT
 7777:05DD  Abs  TCBBAUD
 7777:0600  Abs  TCBPRESEG
 7777:0602  Abs  TCBACTSEG
 7777:0604  Abs  TCB%SB3F
 7777:0706  Abs  TOPSB3F
 7777:0706  Abs  TCBMPORT
 7777:0708  Abs  TCBMTIMER
 7777:070A  Abs  TCBMOUSE
 7777:070B  Abs  TCBUPOLL
 7777:070F  Abs  TCBPARNT
 7777:0711  Abs  TCBAUTOE
 7777:0759  Abs  TCBSHARE
 7777:075A  Abs  TCBFLIMIT
 7777:075B  Abs  TCBLOCK
 7777:075C  Abs  TCBDPMI
 7777:075E  Abs  TCBDPMISEL
 7777:0760  Abs  TCBBATNM
 7777:0764  Abs  TCB_MALLOC_MARK
 7777:0766  Abs  TCBCACER
 7777:0767  Abs  FILLERX
 7777:076C  Abs  TCBIRQCNT
 7777:076D  Abs  TCBCRIT
 7777:076E  Abs  TCBSTATION
 7777:076F  Abs  TCBTSRFLG
 7777:0770  Abs  TCBVIDAD
 7777:0772  Abs  TCBALTAC
 7777:0773  Abs  TCBALTACF
 7777:0774  Abs  TCBALTDN
 7777:0775  Abs  TCBNEST9
 7777:0776  Abs  TCBCHN9
 7777:078A  Abs  TCBNEST8
 7777:078B  Abs  TCBCHN8
 7777:079F  Abs  TCBFWAKE
 7777:07A0  Abs  TCBSIORB
 7777:07A1  Abs  TCBSAFE28
 7777:07A2  Abs  TCBVIDSET
 7777:07A6  Abs  TCBUNREG
 7777:07AA  Abs  TCBL43
 7777:07AB  Abs  TCBL40
 7777:07AD  Abs  TCBPAMFG
 7777:07AE  Abs  TCBPRIPN
 7777:07B0  Abs  TCBCNTXPT
 7777:07B2  Abs  TCBT3X4
 7777:07B3  Abs  TCBTCHIGH
 7777:07B4  Abs  TCBTCLOW
 7777:07B5  Abs  TCBCOUNT
 7777:07B7  Abs  TCBEXEC3D
 7777:07B8  Abs  TCBOPEN60
 7777:07BC  Abs  TCBSTATE
 7777:07BE  Abs  TCBUSERAREA
 7777:07CF  Abs  TCBVIDEO
 7777:07D0  Abs  TCBATTEND
 7777:07D4  Abs  TCBIRQPN
 7777:07E0  Abs  TCBIRQSEC
 7777:07E1  Abs  TCBWPEND
 7777:07E2  Abs  TCBPAM
 7777:07E3  Abs  TCBCRTIO
 7777:07E4  Abs  TCB03B8
 7777:07E5  Abs  TCB03BF
 7777:07E6  Abs  TCBTCCNT
 7777:07E7  Abs  TCBSWFLG
 7777:07E8  Abs  TCBSWITCH
 7777:07E9  Abs  TCBBPCNT
 7777:07EA  Abs  TCBLSTTL
 7777:07EC  Abs  TCBKBANSI
 7777:07EE  Abs  TCBKBANLOW
 7777:07EF  Abs  TCBKBANHI
 7777:07F0  Abs  TCBKBOFF
 7777:07F2  Abs  TCBEMSSEG
 7777:07F4  Abs  TCBDDJMP1
 7777:07F9  Abs  TCBDDJMP2
 7777:07FE  Abs  TCBREBOOT
 7777:07FF  Abs  TCBWATCH
 7777:0801  Abs  TCBANSI
 7777:0802  Abs  TCBDIDKEY
 7777:0803  Abs  TCB$WRAP
 7777:0804  Abs  TCBINMOS
 7777:0806  Abs  TCB28CNT
 7777:0808  Abs  TCB28TIMER
 7777:0809  Abs  TCBEQUIP
 7777:080A  Abs  TCBFLUSH
 7777:080B  Abs  TCB3C2
 7777:080C  Abs  TCBMBPF
 7777:080E  Abs  TCBDPBPF
 7777:0812  Abs  TCBSFTPTR
 7777:0816  Abs  TCBCLKDEV
 7777:081A  Abs  TCBCONDEV
 7777:081E  Abs  TCBSECSIZ
 7777:0820  Abs  TCBDPBPO
 7777:0824  Abs  TCBDINFO
 7777:0828  Abs  TCBFCBPTR
 7777:082F  Abs  TCBLASTDRV
 7777:0830  Abs  TCBDDPF
 7777:085C  Abs  TCB_COM_HOLD
 7777:088C  Abs  TCBEGAPAL
 7777:08A0  Abs  TCBNO24
 7777:08A1  Abs  FILLERZ
 7777:08B1  Abs  TCBMINSTK
 7777:0E8D  Abs  TCBSTACK

Program entry point at 0000:0100
